(dp0
S'CPL'
p1
I14
sS'chain'
p2
I5
sS'ZQU'
p3
I4
sS'AGA'
p4
I1
sS'SIA'
p5
I16
sS'3TJ'
p6
I4
sS'NDP'
p7
I2
sS'CPS'
p8
I10
sS'AGS'
p9
I109
sS'SIN'
p10
I7
sS'OYA'
p11
I4
sS'CPW'
p12
I3
sS'BWQ'
p13
I4
sS'TAR'
p14
I12
sS'PEF'
p15
I6
sS'HZ7'
p16
I8
sS'6FP'
p17
I2
sS'BWD'
p18
I7
sS'9PG'
p19
I1
sS'SPN'
p20
I2
sS'SPO'
p21
I2
sS'K4D'
p22
I3
sS'TAM'
p23
I20
sS'SPD'
p24
I2
sS'9P2'
p25
I5
sS'EOH'
p26
I10
sS'TA1'
p27
I1
sS'VAL'
p28
I12
sS'MJC'
p29
I1
sS'MJM'
p30
I2
sS'XPF'
p31
I3
sS'P'
p32
I1
sS'GD'
p33
I2
sS'CPF'
p34
I4
sS'AMP'
p35
I5
sS'H0Z'
p36
I4
sS'3SA'
p37
I2
sS'Z0P'
p38
I2
sS'PQE'
p39
I2
sS'4W0'
p40
I6
sS'PQN'
p41
I7
sS'PE4'
p42
I7
sS'SNT'
p43
I1
sS'FFK'
p44
I2
sS'MAG'
p45
I4
sS'MAL'
p46
I57
sS'MAN'
p47
I57
sS'BEN'
p48
I8
sS'DTB'
p49
I8
sS'BEF'
p50
I2
sS'PCW'
p51
I359
sS'LMU'
p52
I25
sS'ZDM'
p53
I11
sS'PCK'
p54
I2
sS'PCL'
p55
I2
sS'43Y'
p56
I1
sS'PCF'
p57
I58
sS'D8B'
p58
I1
sS'BET'
p59
I5
sS'NO3'
p60
I31
sS'D1D'
p61
I2
sS'FT4'
p62
I1
sS'10M'
p63
I10
sS'LSM'
p64
I10
sS'PLC'
p65
I372
sS'2PN'
p66
I4
sS'44E'
p67
I8
sS'ZN'
p68
I888
sS'DLH'
p69
I1
sS'FTT'
p70
I4
sS'HCZ'
p71
I10
sS'NFN'
p72
I2
sS'K'
p73
I615
sS'CX5'
p74
I2
sS'P1O'
p75
I6
sS'DSN'
p76
I6
sS'NFU'
p77
I1
sS'DSF'
p78
I5
sS'DVT'
p79
I16
sS'MG'
p80
I436
sS'PC9'
p81
I7
sS'D7W'
p82
I1
sS'N9S'
p83
I3
sS'ZD7'
p84
I1
sS'PC1'
p85
I109
sS'PC6'
p86
I1
sS'PC7'
p87
I6
sS'SRO'
p88
I50
sS'CBS'
p89
I8
sS'9F6'
p90
I2
sS'ACP'
p91
I2
sS'CM5'
p92
I2
sS'LMG'
p93
I137
sS'BN1'
p94
I3
sS'6DZ'
p95
I1
sS'DOK'
p96
I1
sS'CTP'
p97
I1
sS'CE1'
p98
I14
sS'GLN'
p99
I13
sS'DPV'
p100
I39
sS'OLC'
p101
I1112
sS'GLC'
p102
I44
sS'RESIDUES'
p103
I5
sS'GLY'
p104
I32
sS'DIO'
p105
I7
sS'FE'
p106
I58
sS'L3P'
p107
I65
sS'ET'
p108
I3
sS'DOQ'
p109
I8
sS'AKG'
p110
I1
sS'GLU'
p111
I148
sS'T4E'
p112
I3
sS'LFA'
p113
I598
sS'E2Q'
p114
I10
sS'P9D'
p115
I3
sS'9TN'
p116
I1
sS'RIM'
p117
I11
sS'GGL'
p118
I4
sS'GBK'
p119
I1
sS'9TE'
p120
I3
sS'E2J'
p121
I1
sS'0JM'
p122
I2
sS'JEV'
p123
I3
sS'E21'
p124
I24
sS'F'
p125
I9
sS'FMT'
p126
I131
sS'ZMA'
p127
I13
sS'DFP'
p128
I1
sS'GQB'
p129
I6
sS'FMN'
p130
I4
sS'AUU'
p131
I1
sS'0JZ'
p132
I2
sS'FME'
p133
I2
sS'XF5'
p134
I2
sS'EB4'
p135
I3
sS'QUS'
p136
I17
sS'35V'
p137
I1
sS'ALF'
p138
I6
sS'SR'
p139
I13
sS'3WC'
p140
I2
sS'ALE'
p141
I1
sS'LMT'
p142
I646
sS'EDO'
p143
I448
sS'ALA'
p144
I8
sS'CVM'
p145
I214
sS'EDT'
p146
I3
sS'FJ7'
p147
I1
sS'DO5'
p148
I1
sS'LHG'
p149
I261
sS'UD1'
p150
I2
sS'5XP'
p151
I1
sS'IBC'
p152
I3
sS'ERY'
p153
I1
sS'CAU'
p154
I5
sS'5XN'
p155
I4
sS'GPO'
p156
I1
sS'9ZF'
p157
I1
sS'5XO'
p158
I1
sS'CAC'
p159
I56
sS'ERM'
p160
I1
sS'IRON(III)'
p161
I5
sS'BXC'
p162
I1
sS'UKA'
p163
I2
sS'TOE'
p164
I3
sS'PGE'
p165
I36
sS'ONM'
p166
I43
sS'9AU'
p167
I4
sS'PGO'
p168
I4
sS'61V'
p169
I3
sS'61W'
p170
I3
sS'LI'
p171
I14
sS'PGV'
p172
I9
sS'PGW'
p173
I27
sS'PGT'
p174
I21
sS'DYH'
p175
I3
sS'NHY'
p176
I2
sS'A'
p177
I14
sS'STE'
p178
I5
sS'FXW'
p179
I6
sS'DY2'
p180
I2
sS'PG6'
p181
I1
sS'NH4'
p182
I7
sS'PG4'
p183
I79
sS'HIS'
p184
I2
sS'ABU'
p185
I26
sS'NH2'
p186
I16
sS'D45'
p187
I7
sS'1AT'
p188
I4
sS'UDP'
p189
I8
sS'9SL'
p190
I3
sS'CFF'
p191
I1
sS'9Z9'
p192
I2
sS'KFQ'
p193
I2
sS'5QF'
p194
I9
sS'BHY'
p195
I2
sS'1AC'
p196
I2
sS'FAD'
p197
I27
sS'9SR'
p198
I3
sS'GQ4'
p199
I3
sS'GQ2'
p200
I2
sS'GQ1'
p201
I4
sS'RP3'
p202
I2
sS'IR3'
p203
I1
sS'69D'
p204
I2
sS'LIL'
p205
I4
sS'LIM'
p206
I2
sS'SF4'
p207
I15
sS'XQC'
p208
I1
sS'7Y9'
p209
I1
sS'HP6'
p210
I15
sS'MIY'
p211
I3
sS'496'
p212
I1
sS'1Q5'
p213
I3
sS'N7R'
p214
I2
sS'LP5'
p215
I1
sS'FGJ'
p216
I8
sS'3RX'
p217
I1
sS'AY6'
p218
I1
sS'L0A'
p219
I2
sS'URE'
p220
I6
sS'F9E'
p221
I1
sS'758'
p222
I1
sS'UB1'
p223
I2
sS'URI'
p224
I3
sS'LPP'
p225
I8
sS'TPP'
p226
I2
sS'MRD'
p227
I22
sS'1WV'
p228
I2
sS'HRG'
p229
I2
sS'VIB'
p230
I1
sS'IPA'
p231
I10
sS'LDP'
p232
I1
sS'APR'
p233
I3
sS'KAI'
p234
I48
sS'6JW'
p235
I5
sS'VIS'
p236
I2
sS'API'
p237
I10
sS'LI1'
p238
I50
sS'68P'
p239
I4
sS'6JA'
p240
I5
sS'TYR'
p241
I4
sS'P2E'
p242
I2
sS'Y01'
p243
I99
sS'HDS'
p244
I4
sS'OEM'
p245
I2
sS'ACT'
p246
I748
sS'1EM'
p247
I6
sS'SCH'
p248
I8
sS'FUC'
p249
I12
sS'6E3'
p250
I4
sS'OCT'
p251
I72
sS'BMA'
p252
I67
sS'BME'
p253
I10
sS'BMK'
p254
I11
sS'I3P'
p255
I10
sS'DL2'
p256
I1
sS'TKT'
p257
I10
sS'PKA'
p258
I6
sS'NLE'
p259
I2
sS'58A'
p260
I6
sS'I3C'
p261
I1
sS'P4P'
p262
I3
sS'CEY'
p263
I3
sS'CEX'
p264
I4
sS'DLB'
p265
I1
sS'RFP'
p266
I2
sS'OXY'
p267
I4
sS'G'
p268
I2
sS'JTZ'
p269
I1
sS'0YS'
p270
I2
sS'B3P'
p271
I2
sS'GCO'
p272
I1
sS'OXL'
p273
I2
sS'GCP'
p274
I1
sS'DGA'
p275
I36
sS'B3H'
p276
I6
sS'CE2'
p277
I3
sS'7E5'
p278
I2
sS'SHI'
p279
I7
sS'HEZ'
p280
I17
sS'E01'
p281
I15
sS'79K'
p282
I2
sS'AFS'
p283
I2
sS'BKC'
p284
I1
sS'HJH'
p285
I2
sS'4ZK'
p286
I1
sS'BTB'
p287
I6
sS'TBA'
p288
I11
sS'6UY'
p289
I1
sS'LUT'
p290
I162
sS'1RG'
p291
I2
sS'ATP'
p292
I83
sS'U10'
p293
I32
sS'MUN'
p294
I48
sS'PP9'
p295
I4
sS'ASP'
p296
I10
sS'DGG'
p297
I4
sS'DGD'
p298
I88
sS'ECL'
p299
I5
sS'4B5'
p300
I3
sS'ASC'
p301
I3
sS'FV8'
p302
I3
sS'ERC'
p303
I1
sS'LNK'
p304
I1
sS'DU1'
p305
I2
sS'DGX'
p306
I2
sS'CL0'
p307
I2
sS'B'
p308
I2
sS'IMD'
p309
I5
sS'EUJ'
p310
I2
sS'9EC'
p311
I2
sS'CLA'
p312
I1704
sS'XE'
p313
I45
sS'VTP'
p314
I1
sS'TLA'
p315
I8
sS'UND'
p316
I34
sS'FRU'
p317
I3
sS'97N'
p318
I3
sS'97M'
p319
I1
sS'UNK'
p320
I2
sS'EU7'
p321
I11
sS'CLR'
p322
I196
sS'EC8'
p323
I1
sS'0K3'
p324
I1
sS'U1K'
p325
I1
sS'17F'
p326
I108
sS'188'
p327
I1
sS'AT4'
p328
I2
sS'COMPLEX'
p329
I3
sS'AT1'
p330
I5
sS'C7B'
p331
I4
sS'ITP'
p332
I2
sS'7S4'
p333
I1
sS'AAE'
p334
I2
sS'BPB'
p335
I12
sS'BPH'
p336
I34
sS'B4D'
p337
I5
sS'P6G'
p338
I20
sS'MC3'
p339
I10
sS'P6L'
p340
I18
sS'8DX'
p341
I2
sS'CYS'
p342
I18
sS'755'
p343
I1
sS'POV'
p344
I163
sS'F09'
p345
I65
sS'POP'
p346
I2
sS'POQ'
p347
I2
sS'ML2'
p348
I1
sS'S2P'
p349
I3
sS'5PX'
p350
I8
sS'G90'
p351
I2
sS'NTO'
p352
I1
sS'POG'
p353
I15
sS'FYY'
p354
I2
sS'TGL'
p355
I7
sS'CWY'
p356
I1
sS'GOL'
p357
I924
sS'HXA'
p358
I3
sS'DHL'
p359
I2
sS'TG6'
p360
I1
sS'C9V'
p361
I1
sS'MLD'
p362
I2
sS'AJP'
p363
I5
sS'PO4'
p364
I285
sS'MLI'
p365
I10
sS'GOA'
p366
I6
sS'DD9'
p367
I19
sS'E87'
p368
I4
sS'MLT'
p369
I1
sS'FY5'
p370
I2
sS'RBF'
p371
I7
sS'SLB'
p372
I2
sS'J9P'
p373
I1
sS'CG8'
p374
I2
sS'CMP'
p375
I9
sS'BGC'
p376
I17
sS'BGL'
p377
I39
sS'HJ8'
p378
I2
sS'IH5'
p379
I2
sS'DZP'
p380
I6
sS'LIG'
p381
I2
sS'2PE'
p382
I2
sS'1VY'
p383
I8
sS'6RD'
p384
I1
sS'3CS'
p385
I12
sS'BA'
p386
I11
sS'IWD'
p387
I5
sS'HSG'
p388
I4
sS'AWY'
p389
I1
sS'9Y2'
p390
I1
sS'HSH'
p391
I2
sS'VNL'
p392
I8
sS'12P'
p393
I8
sS'MQS'
p394
I2
sS'MQR'
p395
I1
sS'TZG'
p396
I4
sS'C2E'
p397
I19
sS'GP4'
p398
I2
sS'DCW'
p399
I25
sS'8VE'
p400
I6
sS'GP1'
p401
I2
sS'HA7'
p402
I3
sS'82F'
p403
I1
sS'GPH'
p404
I1
sS'H'
p405
I4
sS'RI5'
p406
I10
sS'EWS'
p407
I2
sS'DQZ'
p408
I5
sS'THM'
p409
I4
sS'MQ7'
p410
I6
sS'128'
p411
I7
sS'FVT'
p412
I2
sS'BNG'
p413
I218
sS'PHO'
p414
I24
sS'PA6'
p415
I3
sS'OIC'
p416
I2
sS'SYM'
p417
I2
sS'X2X'
p418
I2
sS'UQ1'
p419
I5
sS'UQ2'
p420
I1
sS'3C1'
p421
I4
sS'3C0'
p422
I4
sS'6UX'
p423
I2
sS'3C2'
p424
I4
sS'E42'
p425
I4
sS'AES'
p426
I4
sS'J0M'
p427
I2
sS'GBM'
p428
I13
sS'PHE'
p429
I5
sS'7S1'
p430
I1
sS'DMS'
p431
I21
sS'DMU'
p432
I139
sS'GBQ'
p433
I3
sS'PS2'
p434
I2
sS'78M'
p435
I56
sS'78N'
p436
I20
sS'PS6'
p437
I4
sS'LDA'
p438
I461
sS'836'
p439
I4
sS'PT'
p440
I8
sS'EF4'
p441
I21
sS'PB'
p442
I4
sS'J9E'
p443
I1
sS'BUF'
p444
I2
sS'BRJ'
p445
I10
sS'0HK'
p446
I5
sS'C'
p447
I4
sS'BU1'
p448
I4
sS'7M6'
p449
I12
sS'MHA'
p450
I11
sS'OPZ'
p451
I3
sS'ZOT'
p452
I2
sS'EFO'
p453
I45
sS'FOL'
p454
I1
sS'EFB'
p455
I24
sS'EFD'
p456
I1
sS'FOK'
p457
I1
sS'RG1'
p458
I74
sS'OPV'
p459
I1
sS'H8G'
p460
I1
sS'H8D'
p461
I1
sS'H8J'
p462
I1
sS'PIO'
p463
I14
sS'L1P'
p464
I6
sS'H8M'
p465
I1
sS'L1L'
p466
I14
sS'DM1'
p467
I1
sS'DM2'
p468
I4
sS'ANP'
p469
I49
sS'PRO'
p470
I3
sS'MOE'
p471
I1
sS'POL'
p472
I1
sS'BCL'
p473
I216
sS'ILE'
p474
I4
sS'D10'
p475
I43
sS'9DK'
p476
I2
sS'D12'
p477
I49
sS'PEV'
p478
I3
sS'PEW'
p479
I2
sS'BCB'
p480
I24
sS'PIE'
p481
I4
sS'FSY'
p482
I1
sS'ETA'
p483
I1
sS'2J9'
p484
I9
sS'9DX'
p485
I2
sS'A2G'
p486
I13
sS'BCT'
p487
I12
sS'PEE'
p488
I40
sS'9DT'
p489
I2
sS'PEG'
p490
I141
sS'BCR'
p491
I292
sS'OLA'
p492
I502
sS'OLB'
p493
I92
sS'KDO'
p494
I9
sS'HWD'
p495
I1
sS'OLM'
p496
I1
sS'FZ4'
p497
I28
sS'CX6'
p498
I6
sS'P33'
p499
I1
sS'IKM'
p500
I2
sS'OBN'
p501
I2
sS'CO'
p502
I11
sS'RB'
p503
I64
sS'CL'
p504
I1002
sS'CA'
p505
I839
sS'HEX'
p506
I21
sS'P3G'
p507
I1
sS'NDG'
p508
I32
sS'CD'
p509
I76
sS'K6V'
p510
I1
sS'NDZ'
p511
I5
sS'1DS'
p512
I4
sS'HEC'
p513
I64
sS'CS'
p514
I95
sS'HEM'
p515
I61
sS'JZR'
p516
I1
sS'CU'
p517
I27
sS'CO1'
p518
I2
sS'TM1'
p519
I2
sS'OEX'
p520
I12
sS'PE8'
p521
I1
sS'CDL'
p522
I52
sS'PE5'
p523
I10
sS'8JN'
p524
I1
sS'7DN'
p525
I1
sS'RHQ'
p526
I2
sS'CDP'
p527
I2
sS'QNB'
p528
I1
sS'RNB'
p529
I4
sS'7DY'
p530
I1
sS'PLM'
p531
I46
sS'BJX'
p532
I5
sS'GNP'
p533
I4
sS'MN'
p534
I80
sS'CVV'
p535
I2
sS'G8M'
p536
I3
sS'35K'
p537
I3
sS'HA5'
p538
I2
sS'3PH'
p539
I7
sS'G8U'
p540
I2
sS'3PK'
p541
I5
sS'C8E'
p542
I762
sS'BXA'
p543
I15
sS'CVD'
p544
I2
sS'3PE'
p545
I19
sS'AIC'
p546
I5
sS'C14'
p547
I23
sS'L6T'
p548
I17
sS'8UN'
p549
I1
sS'SOG'
p550
I3
sS'GAW'
p551
I1
sS'Z9M'
p552
I6
sS'PPN'
p553
I4
sS'MC2'
p554
I2
sS'3N6'
p555
I6
sS'3N7'
p556
I1
sS'2U8'
p557
I1
sS'GAL'
p558
I15
sS'SER'
p559
I5
sS'ZK1'
p560
I27
sS'MBR'
p561
I38
sS'NAI'
p562
I8
sS'6OE'
p563
I4
sS'MTX'
p564
I1
sS'I'
p565
I1
sS'CHL'
p566
I506
sS'3ZA'
p567
I2
sS'L'
p568
I1
sS'6OU'
p569
I6
sS'6EU'
p570
I4
sS'MTN'
p571
I18
sS'SO4'
p572
I1621
sS'PT5'
p573
I7
sS'NS3'
p574
I1
sS'NS5'
p575
I3
sS'NS6'
p576
I4
sS'NS7'
p577
I2
sS'4MP'
p578
I2
sS'8SW'
p579
I1
sS'6DV'
p580
I1
sS'6DY'
p581
I1
sS'6DX'
p582
I1
sS'4V6'
p583
I4
sS'EA2'
p584
I2
sS'CXE'
p585
I33
sS'6DB'
p586
I4
sS'9JU'
p587
I1
sS'ARF'
p588
I10
sS'ARG'
p589
I21
sS'GSP'
p590
I3
sS'P0G'
p591
I1
sS'NAG'
p592
I1463
sS'NAD'
p593
I16
sS'211'
p594
I1
sS'FWD'
p595
I11
sS'FWF'
p596
I18
sS'CHW'
p597
I4
sS'9XW'
p598
I1
sS'9XT'
p599
I1
sS'8TZ'
p600
I1
sS'A6L'
p601
I2
sS'TIM'
p602
I1
sS'NAP'
p603
I23
sS'BR'
p604
I175
sS'GSH'
p605
I4
sS'EPE'
p606
I3
sS'BOG'
p607
I357
sS'LYR'
p608
I5
sS'LYS'
p609
I1
sS'MYS'
p610
I111
sS'GKY'
p611
I3
sS'SXM'
p612
I2
sS'HKT'
p613
I1
sS'2J8'
p614
I4
sS'N8E'
p615
I9
sS'F3S'
p616
I2
sS'LYA'
p617
I3
sS'GLA'
p618
I4
sS'D6T'
p619
I2
sS'MYC'
p620
I6
sS'IOD'
p621
I52
sS'BQ9'
p622
I1
sS'LY5'
p623
I4
sS'LY7'
p624
I2
sS'D'
p625
I10
sS'XAT'
p626
I107
sS'8EP'
p627
I2
sS'RET'
p628
I186
sS'8NU'
p629
I2
sS'2JJ'
p630
I2
sS'B5D'
p631
I5
sS'C3H'
p632
I1
sS'CXS'
p633
I2
sS'UBP'
p634
I4
sS'OH'
p635
I12
sS'GXL'
p636
I1
sS'YZY'
p637
I1
sS'2CV'
p638
I52
sS'BO3'
p639
I3
sS'SQU'
p640
I6
sS'2CS'
p641
I12
sS'UBE'
p642
I2
sS'UBF'
p643
I2
sS'VBP'
p644
I8
sS'UBA'
p645
I4
sS'SQL'
p646
I3
sS'5OY'
p647
I2
sS'SQD'
p648
I85
sS'ZLD'
p649
I1
sS'EP5'
p650
I1
sS'L9Q'
p651
I1
sS'VCA'
p652
I3
sS'8UX'
p653
I1
sS'AV0'
p654
I2
sS'L9Y'
p655
I7
sS'VO4'
p656
I8
sS'HT3'
p657
I2
sS'9DW'
p658
I2
sS'FLC'
p659
I35
sS'HG'
p660
I74
sS'MP9'
p661
I1
sS'SCN'
p662
I21
sS'04J'
p663
I1
sS'6AD'
p664
I1
sS'7RV'
p665
I1
sS'7RS'
p666
I1
sS'PTY'
p667
I80
sS'AMQ'
p668
I18
sS'420'
p669
I1
sS'AMU'
p670
I2
sS'DHE'
p671
I4
sS'6AT'
p672
I3
sS'7RY'
p673
I1
sS'308'
p674
I13
sS'CY8'
p675
I2
sS'M'
p676
I1
sS'UBC'
p677
I2
sS'TRD'
p678
I18
sS'O'
p679
I4
sS'71C'
p680
I1
sS'PBE'
p681
I1
sS'2QD'
p682
I1
sS'2QE'
p683
I1
sS'AM1'
p684
I6
sS'TRP'
p685
I3
sS'TRS'
p686
I14
sS'TRT'
p687
I24
sS'MPG'
p688
I66
sS'MPD'
p689
I71
sS'8VN'
p690
I5
sS'8WX'
p691
I1
sS'HTO'
p692
I19
sS'8WQ'
p693
I1
sS'KR0'
p694
I17
sS'ACA'
p695
I1
sS'HFZ'
p696
I5
sS'SUC'
p697
I35
sS'ACE'
p698
I31
sS'P4G'
p699
I2
sS'CO2'
p700
I1
sS'P4C'
p701
I2
sS'NEC'
p702
I1
sS'ACM'
p703
I6
sS'ACR'
p704
I6
sS'JSZ'
p705
I1
sS'NEX'
p706
I81
sS'B6D'
p707
I1
sS'1KS'
p708
I2
sS'ACY'
p709
I32
sS'3DO'
p710
I2
sS'NGA'
p711
I5
sS'NI'
p712
I26
sS'95B'
p713
I1
sS'PMS'
p714
I1
sS'NA'
p715
I950
sS'22B'
p716
I41
sS'DN5'
p717
I1
sS'FE2'
p718
I18
sS'DEQ'
p719
I1
sS'TEP'
p720
I1
sS'CGW'
p721
I1
sS'GM4'
p722
I3
sS'GMJ'
p723
I3
sS'L2C'
p724
I7
sS'GMH'
p725
I2
sS'ADP'
p726
I78
sS'J'
p727
I1
sS'DNK'
p728
I1
sS'L2P'
p729
I114
sS'DNQ'
p730
I4
sS'FES'
p731
I1
sS'CUA'
p732
I3
sS'FCI'
p733
I1
sS'8K6'
p734
I49
sS'DNZ'
p735
I1
sS'GDP'
p736
I4
sS'HSQ'
p737
I1
sS'660'
p738
I1
sS'MET'
p739
I3
sS'GDD'
p740
I4
sS'LEU'
p741
I39
sS'MES'
p742
I20
sS'BRH'
p743
I2
sS'9UB'
p744
I1
sS'7LD'
p745
I1
sS'JRZ'
p746
I1
sS'AZI'
p747
I9
sS'AZJ'
p748
I1
sS'1PG'
p749
I61
sS'1PE'
p750
I68
sS'PL9'
p751
I28
sS'TWT'
p752
I2
sS'CIT'
p753
I34
sS'R2P'
p754
I4
sS'OES'
p755
I7
sS'AQV'
p756
I16
sS'3HU'
p757
I2
sS'DAL'
p758
I1
sS'DAO'
p759
I1
sS'TXC'
p760
I1
sS'8PR'
p761
I3
sS'PCG'
p762
I2
sS'TO'
p763
I1
sS'TL'
p764
I12
sS'08H'
p765
I2
sS'JEY'
p766
I7
sS'E'
p767
I1
sS'8T2'
p768
I1
sS'LHV'
p769
I2
sS'PX4'
p770
I78
sS'1N7'
p771
I3
sS'AU'
p772
I11
sS'CNC'
p773
I1
sS'PGK'
p774
I2
sS'N'
p775
I1
sS'GVT'
p776
I6
sS'CNI'
p777
I8
sS'15P'
p778
I6
sS'MS8'
p779
I4
sS'PFL'
p780
I5
sS'P9N'
p781
I10
sS'CYZ'
p782
I14
sS'WO4'
p783
I2
sS'DXC'
p784
I1
s.