(lp0
V5WC5_B
p1
aV2PX8_B
p2
aV4PXK_A
p3
aV5M62_A
p4
aV3LW5_B
p5
aV3LW0_B
p6
aV4LWY_L
p7
aV3J8F_7
p8
aV2J80_A
p9
aV2J8D_H
p10
aV2J8D_M
p11
aV1KYO_C
p12
aV1KYO_P
p13
aV5AFB_A
p14
aV5GV3_A
p15
aV3DFL_A
p16
aV2DF3_A
p17
aV3VIV_A
p18
aV4NXV_C
p19
aV5MN2_A
p20
aV4FNW_A
p21
aV5V2C_b
p22
aV5V2C_e
p23
aV5V2C_c
p24
aV5V2C_d
p25
aV5C5C_A
p26
aV3JUS_A
p27
aV4JUG_K
p28
aV3Q3G_G
p29
aV6FTB_A
p30
aV1BQU_B
p31
aV3NYA_A
p32
aV5O9A_B
p33
aV5N9B_A
p34
aV2XTM_A
p35
aV3EF7_A
p36
aV4NUV_A
p37
aV1FOA_A
p38
aV3T6E_L
p39
aV3T6E_H
p40
aV3T6E_M
p41
aV5T6Y_A
p42
aV3T6Q_A
p43
aV2BV5_A
p44
aV3KZI_H
p45
aV3KZI_Z
p46
aV5LFR_A
p47
aV5LFK_A
p48
aV3CTT_A
p49
aV4CTH_A
p50
aV1IVF_A
p51
aV4RSU_J
p52
aV4RSU_B
p53
aV4RS1_B
p54
aV3WPF_A
p55
aV3WPB_A
p56
aV4G2K_A
p57
aV6G2J_M
p58
aV6G2J_N
p59
aV6G2J_d
p60
aV5M2Q_B
p61
aV4DLQ_A
p62
aV1DL2_A
p63
aV4DLO_B
p64
aV6B7H_A
p65
aV4OC1_A
p66
aV5OC0_A
p67
aV4P6V_B
p68
aV4P6V_E
p69
aV1ZEF_A
p70
aV4U7L_A
p71
aV3CYN_C
p72
aV3CY4_B
p73
aV6G3W_B
p74
aV5EQB_A
p75
aV3EQV_A
p76
aV4RX0_A
p77
aV3WZD_A
p78
aV4WZN_B
p79
aV4L6V_6
p80
aV5KBW_B
p81
aV4YLQ_T
p82
aV3LQM_A
p83
aV4LQY_A
p84
aV5YEW_C
p85
aV4U4T_A
p86
aV5KXI_B
p87
aV4FBY_A
p88
aV3B2D_A
p89
aV5HZV_A
p90
aV1HZX_A
p91
aV3L71_C
p92
aV4EEA_C
p93
aV3EE7_B
p94
aV3C6F_D
p95
aV5M8R_D
p96
aV2HP4_A
p97
aV4HT2_B
p98
aV5H3O_A
p99
aV4K33_A
p100
aV5E8U_A
p101
aV1E87_A
p102
aV5E8N_A
p103
aV1E8T_B
p104
aV5E8V_A
p105
aV2Z7X_A
p106
aV2Z7X_B
p107
aV4Z77_D
p108
aV4Z7Q_D
p109
aV2B8H_D
p110
aV6B8O_A
p111
aV1YQ3_D
p112
aV3GD8_A
p113
aV4RP9_A
p114
aV1V84_A
p115
aV5X19_P
p116
aV5X1F_T
p117
aV5X1B_A
p118
aV2NOP_A
p119
aV4NOF_B
p120
aV3PVH_A
p121
aV5K8R_A
p122
aV5UV8_G
p123
aV3W54_A
p124
aV5W5C_F
p125
aV4MH5_A
p126
aV5MR3_B
p127
aV1XZZ_A
p128
aV3BRB_B
p129
aV4BR0_A
p130
aV3BL8_A
p131
aV5JIF_A
p132
aV4ZW9_A
p133
aV5SYT_A
p134
aV4FE1_L
p135
aV4FE1_A
p136
aV4FE1_B
p137
aV3FEC_A
p138
aV5VKJ_A
p139
aV5VK2_c
p140
aV5VK2_A
p141
aV4ISO_A
p142
aV3KGR_B
p143
aV3BB1_A
p144
aV3BBT_B
p145
aV3ZHG_A
p146
aV6BSW_A
p147
aV5FDY_A
p148
aV3D5O_F
p149
aV4CKI_A
p150
aV6D1Z_A
p151
aV5B1R_A
p152
aV5B1A_B
p153
aV4IHB_D
p154
aV5NQA_A
p155
aV2QQI_A
p156
aV4FFW_B
p157
aV3HFX_A
p158
aV4RET_A
p159
aV4ZLP_A
p160
aV3ZLE_L
p161
aV4TWD_I
p162
aV4TW2_A
p163
aV4TWE_A
p164
aV4U1N_A
p165
aV4U14_A
p166
aV4U15_A
p167
aV3U11_B
p168
aV3TOP_A
p169
aV4QDH_A
p170
aV4QDQ_A
p171
aV5NM4_A
p172
aV5NMI_E
p173
aV5NMT_A
p174
aV3O0R_B
p175
aV5FV9_A
p176
aV3FVZ_A
p177
aV6FVZ_A
p178
aV5X9H_A
p179
aV3ZPQ_B
p180
aV2ZPL_C
p181
aV4P57_C
p182
aV4HQ1_A
p183
aV3UY6_A
p184
aV2WML_A
p185
aV4GI0_A
p186
aV2GIX_A
p187
aV5GIJ_B
p188
aV6GI6_A
p189
aV2WSF_L
p190
aV3WSY_A
p191
aV4RYN_A
p192
aV5VCM_B
p193
aV5VC1_A
p194
aV3FXI_A
p195
aV4PJ9_A
p196
aV3EU9_C
p197
aV5EUS_A
p198
aV2NWF_A
p199
aV3S3F_A
p200
aV3S33_A
p201
aV5IRX_D
p202
aV4IRE_D
p203
aV4GWM_A
p204
aV4BFE_C
p205
aV5LZR_A
p206
aV1V0Z_D
p207
aV3V0Q_A
p208
aV3TLO_A
p209
aV5VSN_A
p210
aV2VS4_A
p211
aV3B4R_A
p212
aV5VAK_A
p213
aV2OX9_B
p214
aV6CPR_A
p215
aV3MPK_A
p216
aV2RCB_A
p217
aV4OTW_A
p218
aV5HGI_A
p219
aV2XWT_C
p220
aV5XWD_A
p221
aV4QI1_A
p222
aV3QI9_A
p223
aV4ZJ8_A
p224
aV2ZJC_B
p225
aV4LXR_A
p226
aV1ZXC_A
p227
aV5H0U_A
p228
aV4H0L_B
p229
aV2H0B_D
p230
aV1SDW_A
p231
aV5C3F_A
p232
aV5XJ9_A
p233
aV1KPL_D
p234
aV3KPE_A
p235
aV5LLS_D
p236
aV5T77_A
p237
aV5HJ2_D
p238
aV4ZMV_A
p239
aV1W0G_A
p240
aV5JR2_D
p241
aV4JRZ_A
p242
aV2R1F_A
p243
aV1UJW_A
p244
aV3HD7_A
p245
aV3HD7_F
p246
aV4MMZ_A
p247
aV5EH1_A
p248
aV5IXT_A
p249
aV2IXF_A
p250
aV4ADI_C
p251
aV5MYA_A
p252
aV5DVX_A
p253
aV5I6X_A
p254
aV5XDQ_J
p255
aV4XDJ_B
p256
aV5JQB_B
p257
aV5JQY_A
p258
aV5BUO_A
p259
aV6C97_A
p260
aV5C9J_A
p261
aV5C94_A
p262
aV4CNC_A
p263
aV6CNK_D
p264
aV2QC1_B
p265
aV3ME4_A
p266
aV4ZCV_A
p267
aV5JBS_A
p268
aV5N6H_B
p269
aV5N6M_A
p270
aV4DX5_A
p271
aV4DX1_A
p272
aV5GR8_D
p273
aV6D9H_R
p274
aV1D9K_G
p275
aV4I3N_A
p276
aV4NZR_M
p277
aV3AP2_A
p278
aV4APX_B
p279
aV3S2V_B
p280
aV3S2K_B
p281
aV4L4I_A
p282
aV4JZL_A
p283
aV4N78_B
p284
aV5AZC_A
p285
aV4R6U_C
p286
aV2ZSV_A
p287
aV5SZQ_A
p288
aV5B3S_I
p289
aV2CMR_A
p290
aV3P2T_A
p291
aV3TNZ_A
p292
aV4TNW_A
p293
aV3ETO_A
p294
aV4ETU_A
p295
aV6ET4_A
p296
aV2HR7_B
p297
aV4PE5_B
p298
aV4PE5_C
p299
aV4HBQ_B
p300
aV5LBD_A
p301
aV3UL8_A
p302
aV3ULV_A
p303
aV3IIQ_A
p304
aV2XY2_A
p305
aV4I18_R
p306
aV2I1Y_B
p307
aV6D05_A
p308
aV4N0O_C
p309
aV3FQQ_A
p310
aV1G1R_C
p311
aV6CI0_D
p312
aV5VEM_A
p313
aV5VEN_A
p314
aV5D3I_A
p315
aV1QFG_A
p316
aV2QF3_C
p317
aV4D6U_C
p318
aV4D6U_Q
p319
aV5JJN_A
p320
aV5DQQ_A
p321
aV3FAS_A
p322
aV4PIR_D
p323
aV2IC8_A
p324
aV5ICT_A
p325
aV4XI5_A
p326
aV5C14_A
p327
aV6C1R_B
p328
aV3V3C_L
p329
aV5AQ0_B
p330
aV3MJ9_A
p331
aV3TGX_I
p332
aV4W4O_C
p333
aV4WJL_B
p334
aV4WJK_A
p335
aV4WJK_B
p336
aV5DZW_A
p337
aV3SAJ_A
p338
aV2YNA_A
p339
aV5IKB_A
p340
aV4O1Z_A
p341
aV3U0P_C
p342
aV5LGD_A
p343
aV4A4Y_A
p344
aV1A4G_A
p345
aV2A4O_A
p346
aV6CH2_B
p347
aV2BCK_D
p348
aV2OO4_A
p349
aV5WYX_B
p350
aV4M7H_A
p351
aV4ENE_A
p352
aV6EN6_D
p353
aV4MSV_A
p354
aV4MS4_A
p355
aV4TYJ_A
p356
aV5U8C_A
p357
aV1I8L_A
p358
aV4J0M_A
p359
aV1DE4_G
p360
aV5HK1_C
p361
aV5OSA_D
p362
aV3OSK_A
p363
aV3JCU_a
p364
aV2JCR_A
p365
aV2P7T_C
p366
aV5T04_A
p367
aV3UP1_A
p368
aV5GGK_A
p369
aV3QK5_A
p370
aV5LK2_A
p371
aV3LKZ_A
p372
aV3LKW_A
p373
aV4LK3_F
p374
aV2CFQ_A
p375
aV6CF5_D
p376
aV5NSJ_A
p377
aV4NSD_B
p378
aV5M0W_A
p379
aV4M0W_A
p380
aV5M02_H
p381
aV3BE8_A
p382
aV2BEZ_C
p383
aV5VOB_A
p384
aV4E1S_A
p385
aV3V64_C
p386
aV4GBY_A
p387
aV3GBN_B
p388
aV4POV_A
p389
aV4RDA_A
p390
aV5WRI_A
p391
aV4JM0_A
p392
aV5PZP_A
p393
aV2PZG_A
p394
aV4PZ4_A
p395
aV5ERP_B
p396
aV4ERV_A
p397
aV6B5V_D
p398
aV5KIJ_A
p399
aV2H26_A
p400
aV3MBW_A
p401
aV4MBS_A
p402
aV5IUM_A
p403
aV4IUM_A
p404
aV1HWK_A
p405
aV5WI8_A
p406
aV5WIE_B
p407
aV4MZA_B
p408
aV4PHQ_C
p409
aV2GAM_C
p410
aV4GAF_B
p411
aV4D79_C
p412
aV5E0H_A
p413
aV1E0O_B
p414
aV5EG3_A
p415
aV4EGW_A
p416
aV1EGI_B
p417
aV1S4N_B
p418
aV5FWY_B
p419
aV4FWW_A
p420
aV4Q6R_A
p421
aV4BKJ_A
p422
aV6BKM_A
p423
aV3DWF_D
p424
aV4DW7_A
p425
aV1R4L_A
p426
aV4ESK_C
p427
aV5KOE_C
p428
aV2JLZ_A
p429
aV2JLL_A
p430
aV5VYB_A
p431
aV5Y31_A
p432
aV5Y3Z_B
p433
aV4KCD_B
p434
aV5KC8_A
p435
aV5KC9_A
p436
aV4F12_A
p437
aV1RJ6_A
p438
aV5KVM_A
p439
aV6AW0_A
p440
aV5AWW_Y
p441
aV6F5U_A
p442
aV1P84_D
p443
aV5BO1_B
p444
aV6CGS_B
p445
aV6CGB_A
p446
aV5YHF_A
p447
aV6C26_2
p448
aV6C26_A
p449
aV6C26_1
p450
aV4C2P_A
p451
aV1M9Z_A
p452
aV3M97_X
p453
aV5XEA_B
p454
aV4IAR_A
p455
aV5EDL_A
p456
aV5M5E_B
p457
aV2FGJ_D
p458
aV6FG8_A
p459
aV6ANK_B
p460
aV1EWK_B
p461
aV3BP6_B
p462
aV4K1C_A
p463
aV2K1R_A
p464
aV4PQP_B
p465
aV3KUL_A
p466
aV3I92_B
p467
aV5I9J_A
p468
aV2I9L_L
p469
aV5I9Y_A
p470
aV4C00_A
p471
aV1Q25_A
p472
aV2Q2F_A
p473
aV3Q2W_A
p474
aV3Q2V_A
p475
aV3Q2U_A
p476
aV6B9F_B
p477
aV5Y92_A
p478
aV5Y96_A
p479
aV5TZN_A
p480
aV5TZU_C
p481
aV3VB7_B
p482
aV1NEK_D
p483
aV1NEK_C
p484
aV4Y5V_F
p485
aV2EVU_A
p486
aV1NKZ_C
p487
aV3NKA_B
p488
aV4NKA_B
p489
aV1R55_A
p490
aV6F9G_D
p491
aV3S6C_A
p492
aV3PDO_A
p493
aV3A3K_A
p494
aV6CB2_A
p495
aV5Z96_D
p496
aV1Z9H_D
p497
aV1HXT_A
p498
aV2QJK_M
p499
aV3MVS_A
p500
aV5K6W_A
p501
aV5K6K_A
p502
aV5K6X_A
p503
aV2WBP_A
p504
aV4UF7_E
p505
aV4KQQ_A
p506
aV2Q7R_D
p507
aV2Q7N_A
p508
aV5KD7_F
p509
aV3OKT_A
p510
aV3OKW_A
p511
aV4W7Z_A
p512
aV3B6H_A
p513
aV2Z81_A
p514
aV4H13_A
p515
aV2WX2_B
p516
aV5K0B_B
p517
aV3VW7_A
p518
aV5VWV_A
p519
aV4J14_A
p520
aV1IM0_A
p521
aV1DJL_A
p522
aV5DJQ_A
p523
aV5DJQ_F
p524
aV4XP4_A
p525
aV1J4N_A
p526
aV4WKQ_A
p527
aV5WKV_B
p528
aV5MDX_7
p529
aV5MDX_R
p530
aV5MDX_s
p531
aV1QYY_A
p532
aV4I7Z_C
p533
aV3S5L_H
p534
aV5V7V_A
p535
aV4OF8_A
p536
aV4OFY_C
p537
aV4OFY_E
p538
aV4PWU_C
p539
aV1L8J_A
p540
aV5L8R_3
p541
aV5L8R_4
p542
aV5L8R_A
p543
aV4UDT_A
p544
aV4UDT_B
p545
aV5UDY_A
p546
aV1Q90_C
p547
aV1SO2_D
p548
aV3SOV_A
p549
aV4NF5_B
p550
aV5X0M_A
p551
aV2H4V_A
p552
aV5EJ0_A
p553
aV3NIG_A
p554
aV1HE7_A
p555
aV2R2O_A
p556
aV5Z5K_A
p557
aV2Z5X_A
p558
aV4LSX_B
p559
aV4HYX_B
p560
aV4FMK_A
p561
aV5FMK_A
p562
aV2FMA_A
p563
aV1RQQ_A
p564
aV5HAG_A
p565
aV2YDV_A
p566
aV4NPK_A
p567
aV5A9D_A
p568
aV5A9H_A
p569
aV5F21_A
p570
aV4HSI_D
p571
aV3VQ2_A
p572
aV4YPT_A
p573
aV4IFF_C
p574
aV1IFQ_B
p575
aV4UON_A
p576
aV3RZE_A
p577
aV2Y6M_A
p578
aV1PT6_B
p579
aV1EXZ_B
p580
aV3U2H_A
p581
aV4AH2_B
p582
aV2AHS_A
p583
aV5DIR_A
p584
aV4EBZ_A
p585
aV5E6V_A
p586
aV5U94_A
p587
aV4U9S_C
p588
aV4QXE_A
p589
aV5CC2_A
p590
aV3WQJ_A
p591
aV4PP8_A
p592
aV2ID5_A
p593
aV5XAX_B
p594
aV4XAV_A
p595
aV5XAW_A
p596
aV4JFN_A
p597
aV3G0E_A
p598
aV6BAA_H
p599
aV2ZD9_C
p600
aV5UAB_A
p601
aV3LCA_A
p602
aV5ZGB_L
p603
aV5ZGB_A
p604
aV5ZGB_B
p605
aV3BIK_C
p606
aV3BI9_X
p607
aV5O36_A
p608
aV3SFE_C
p609
aV4S0V_A
p610
aV3N85_A
p611
aV4N8E_B
p612
aV4URT_B
p613
aV4WGK_A
p614
aV5K47_D
p615
aV1L3W_A
p616
aV5E5M_G
p617
aV4I0P_H
p618
aV4I0P_F
p619
aV4I0P_G
p620
aV4I0J_A
p621
aV5I04_A
p622
aV5EIK_A
p623
aV5CJF_A
p624
aV5JNX_A
p625
aV5XNL_C
p626
aV2XN9_A
p627
aV2XN9_B
p628
aV3BN3_B
p629
aV2DUR_A
p630
aV4GKX_A
p631
aV2GK2_B
p632
aV5OGL_A
p633
aV1VP6_C
p634
aV5HM7_A
p635
aV2XME_A
p636
aV4K5Y_A
p637
aV5CXF_B
p638
aV5CXV_A
p639
aV3ZBF_A
p640
aV1CQP_A
p641
aV3TFQ_E
p642
aV2DGJ_B
p643
aV4ALZ_A
p644
aV3ALA_A
p645
aV4OBC_A
p646
aV4GMS_D
p647
aV5V52_A
p648
aV3V5U_A
p649
aV2V5T_A
p650
aV4ZRP_D
p651
aV5ZRY_A
p652
aV3QLU_B
p653
a.