(lp0
V5WC5_B
p1
aV2PX8_B
p2
aV4PXK_A
p3
aV4LWY_L
p4
aV3J8F_7
p5
aV2J80_A
p6
aV2J8D_H
p7
aV5AFB_A
p8
aV5GV3_A
p9
aV3DFL_A
p10
aV2DF3_A
p11
aV3VIV_A
p12
aV4NXV_C
p13
aV5V2C_b
p14
aV5V2C_e
p15
aV5V2C_c
p16
aV5V2C_d
p17
aV4JUG_K
p18
aV3Q3G_G
p19
aV6FTB_A
p20
aV1BQU_B
p21
aV5N9B_A
p22
aV2XTM_A
p23
aV4NUV_A
p24
aV1FOA_A
p25
aV3T6E_M
p26
aV3T6Q_A
p27
aV3KZI_H
p28
aV3KZI_Z
p29
aV5LFR_A
p30
aV5LFK_A
p31
aV4CTH_A
p32
aV4RSU_J
p33
aV4RSU_B
p34
aV4RS1_B
p35
aV6G2J_M
p36
aV6G2J_N
p37
aV6G2J_d
p38
aV5M2Q_B
p39
aV4DLQ_A
p40
aV1DL2_A
p41
aV4DLO_B
p42
aV6B7H_A
p43
aV5OC0_A
p44
aV4P6V_B
p45
aV4P6V_E
p46
aV1ZEF_A
p47
aV4U7L_A
p48
aV3CYN_C
p49
aV3CY4_B
p50
aV6G3W_B
p51
aV5EQB_A
p52
aV3EQV_A
p53
aV4RX0_A
p54
aV4WZN_B
p55
aV4L6V_6
p56
aV5KBY_B
p57
aV5KBW_B
p58
aV4YLQ_T
p59
aV3LQM_A
p60
aV5YEW_C
p61
aV4U4T_A
p62
aV1HZX_A
p63
aV4EEA_C
p64
aV3C6F_D
p65
aV5M8R_D
p66
aV2HP4_A
p67
aV4HT2_B
p68
aV5H3O_A
p69
aV5E8U_A
p70
aV1E87_A
p71
aV1E8T_B
p72
aV2Z7X_A
p73
aV4Z7Q_D
p74
aV6B8O_A
p75
aV1YQ3_D
p76
aV4RP9_A
p77
aV1V84_A
p78
aV5X19_P
p79
aV5X1F_T
p80
aV5X1B_A
p81
aV2NOP_A
p82
aV4NOF_B
p83
aV3PVH_A
p84
aV3W54_A
p85
aV5W5C_F
p86
aV5MR3_B
p87
aV1XZZ_A
p88
aV4BR0_A
p89
aV3BL8_A
p90
aV5JIF_A
p91
aV5SYT_A
p92
aV4FE1_A
p93
aV5VKJ_A
p94
aV5VK2_c
p95
aV5VK2_A
p96
aV3BB1_A
p97
aV6BSW_A
p98
aV5FDY_A
p99
aV5B1R_A
p100
aV4IHB_D
p101
aV5NQA_A
p102
aV3HFX_A
p103
aV4RET_A
p104
aV4ZLP_A
p105
aV3ZLE_L
p106
aV4TWD_I
p107
aV4TWE_A
p108
aV3U11_B
p109
aV3TOP_A
p110
aV4QDH_A
p111
aV4QDQ_A
p112
aV5NM4_A
p113
aV5NMI_E
p114
aV3O0R_B
p115
aV3FVZ_A
p116
aV5X9H_A
p117
aV2ZPL_C
p118
aV4HQ1_A
p119
aV3UY6_A
p120
aV2WML_A
p121
aV4GI0_A
p122
aV2GIX_A
p123
aV5GIJ_B
p124
aV2WSF_L
p125
aV3WSY_A
p126
aV4RYN_A
p127
aV5VCM_B
p128
aV3EU9_C
p129
aV5EUS_A
p130
aV3S33_A
p131
aV3S39_A
p132
aV5IRX_D
p133
aV4IRE_D
p134
aV4GWM_A
p135
aV4BFE_C
p136
aV5LZR_A
p137
aV1V0Z_D
p138
aV3V0Q_A
p139
aV5VSN_A
p140
aV3B4R_A
p141
aV5VAK_A
p142
aV6CPR_A
p143
aV3MPK_A
p144
aV5HGI_A
p145
aV2XWT_C
p146
aV3QI9_A
p147
aV4ZJ8_A
p148
aV2ZJC_B
p149
aV4LXR_A
p150
aV1ZXC_A
p151
aV5H0U_A
p152
aV4H0L_B
p153
aV2H0B_D
p154
aV1SDW_A
p155
aV5C3F_A
p156
aV5XJ9_A
p157
aV1KPL_D
p158
aV3KPE_A
p159
aV5T77_A
p160
aV5HJ2_D
p161
aV1W0G_A
p162
aV4JRZ_A
p163
aV2R1F_A
p164
aV1UJW_A
p165
aV3HD7_A
p166
aV3HD7_F
p167
aV4MMZ_A
p168
aV5EH1_A
p169
aV2IXF_A
p170
aV4ADI_C
p171
aV5MYA_A
p172
aV5I6X_A
p173
aV5XDQ_J
p174
aV4XDJ_B
p175
aV5JQB_B
p176
aV5JQY_A
p177
aV6C97_A
p178
aV5C94_A
p179
aV4CNC_A
p180
aV6CNK_D
p181
aV3ME4_A
p182
aV4ZCV_A
p183
aV5JBS_A
p184
aV5N6H_B
p185
aV4DX5_A
p186
aV4DX1_A
p187
aV4NZR_M
p188
aV3AP2_A
p189
aV4APX_B
p190
aV3S2K_B
p191
aV4L4I_A
p192
aV4N78_B
p193
aV5AZC_A
p194
aV4R6U_C
p195
aV5SZQ_A
p196
aV5B3S_I
p197
aV2CMR_A
p198
aV3P2T_A
p199
aV3TNZ_A
p200
aV4TNW_A
p201
aV4ETU_A
p202
aV2HR7_B
p203
aV4PE5_B
p204
aV4PE5_C
p205
aV4HBQ_B
p206
aV5LBD_A
p207
aV3ULV_A
p208
aV3IIQ_A
p209
aV2XY2_A
p210
aV4I18_R
p211
aV6D05_A
p212
aV4N0O_C
p213
aV3FQQ_A
p214
aV1G1R_C
p215
aV6CI0_D
p216
aV1QFG_A
p217
aV2QF3_C
p218
aV5DQQ_A
p219
aV4PIR_D
p220
aV2IC8_A
p221
aV5ICT_A
p222
aV4XI5_A
p223
aV5C14_A
p224
aV6C1R_B
p225
aV3V3C_L
p226
aV3V3C_K
p227
aV5AQ0_B
p228
aV3MJ9_A
p229
aV3TGX_I
p230
aV4W4O_C
p231
aV5DZW_A
p232
aV2YNA_A
p233
aV4O1Z_A
p234
aV5LGD_A
p235
aV4A4Y_A
p236
aV1A4G_A
p237
aV2A4O_A
p238
aV6CH2_B
p239
aV2BCK_D
p240
aV5WYX_B
p241
aV4M7H_A
p242
aV6EN6_D
p243
aV4MSV_A
p244
aV1I8L_A
p245
aV5HK1_C
p246
aV3OSK_A
p247
aV3JCU_a
p248
aV5T04_A
p249
aV3UP1_A
p250
aV5GGK_A
p251
aV3QK5_A
p252
aV5LK2_A
p253
aV3LKW_A
p254
aV4LK3_F
p255
aV2CFQ_A
p256
aV6CF5_D
p257
aV5NSJ_A
p258
aV4NSD_B
p259
aV5M0W_A
p260
aV2BEZ_C
p261
aV5VOB_A
p262
aV4E1S_A
p263
aV4GBY_A
p264
aV4POV_A
p265
aV4RDA_A
p266
aV4JM0_A
p267
aV5PZP_A
p268
aV4PZ4_A
p269
aV6B5V_D
p270
aV3MBW_A
p271
aV4MBS_A
p272
aV5IUM_A
p273
aV4IUM_A
p274
aV1HWK_A
p275
aV5WIE_B
p276
aV4MZA_B
p277
aV4PHQ_C
p278
aV2GAM_C
p279
aV4GAF_B
p280
aV4D79_C
p281
aV5E0H_A
p282
aV1E0O_B
p283
aV4EGW_A
p284
aV1S4N_B
p285
aV5FWY_B
p286
aV4FWW_A
p287
aV4Q6R_A
p288
aV3DWF_D
p289
aV4DW7_A
p290
aV4ESK_C
p291
aV5KOE_C
p292
aV2JLZ_A
p293
aV2JLL_A
p294
aV5VYB_A
p295
aV5Y31_A
p296
aV5Y3Z_B
p297
aV5KC8_A
p298
aV4F12_A
p299
aV5KVM_A
p300
aV5AWW_Y
p301
aV6F5U_A
p302
aV1P84_D
p303
aV5BO1_B
p304
aV5YHF_A
p305
aV6C26_2
p306
aV6C26_A
p307
aV6C26_1
p308
aV1M9Z_A
p309
aV3M97_X
p310
aV5XEA_B
p311
aV5EDL_A
p312
aV5M5E_B
p313
aV3BP6_B
p314
aV4K1C_A
p315
aV2K1R_A
p316
aV4PQP_B
p317
aV3I92_B
p318
aV5I9J_A
p319
aV2I9L_L
p320
aV4C00_A
p321
aV1Q25_A
p322
aV2Q2F_A
p323
aV3Q2W_A
p324
aV3Q2U_A
p325
aV6B9F_B
p326
aV5Y92_A
p327
aV5TZN_A
p328
aV5TZU_C
p329
aV1NEK_D
p330
aV1NEK_C
p331
aV4Y5V_F
p332
aV1NKZ_C
p333
aV3NKA_B
p334
aV6F9G_D
p335
aV3PDO_A
p336
aV3A3K_A
p337
aV6CB2_A
p338
aV5Z96_D
p339
aV1Z9H_D
p340
aV1HXT_A
p341
aV2QJK_M
p342
aV3MVS_A
p343
aV5K6W_A
p344
aV5K6K_A
p345
aV2WBP_A
p346
aV4UF7_E
p347
aV2Q7R_D
p348
aV2Q7N_A
p349
aV3OKT_A
p350
aV3OKW_A
p351
aV4W7Z_A
p352
aV3B6H_A
p353
aV5B66_B
p354
aV5K0B_B
p355
aV5VWV_A
p356
aV4J14_A
p357
aV1IM0_A
p358
aV1DJL_A
p359
aV5DJQ_A
p360
aV5DJQ_F
p361
aV1J4N_A
p362
aV4WKQ_A
p363
aV5WKV_B
p364
aV5MDX_R
p365
aV1QYY_A
p366
aV4I7Z_C
p367
aV3S5L_H
p368
aV5V7V_A
p369
aV4OF8_A
p370
aV4OFY_C
p371
aV4OFY_E
p372
aV4PWU_C
p373
aV1L8J_A
p374
aV4UDT_A
p375
aV5UDY_A
p376
aV1Q90_C
p377
aV1SO2_D
p378
aV5X0M_A
p379
aV2H4V_A
p380
aV5EJ0_A
p381
aV1HE7_A
p382
aV2R2O_A
p383
aV5Z5K_A
p384
aV2Z5X_A
p385
aV4LSX_B
p386
aV5FMK_A
p387
aV2FMA_A
p388
aV5HAG_A
p389
aV4NPK_A
p390
aV5A9D_A
p391
aV5A9H_A
p392
aV5F21_A
p393
aV4HSI_D
p394
aV4HSI_B
p395
aV3VQ2_A
p396
aV4YPT_A
p397
aV4IFF_C
p398
aV1IFQ_B
p399
aV4UON_A
p400
aV1EXZ_B
p401
aV3U2H_A
p402
aV4AH2_B
p403
aV5DIR_A
p404
aV4EBZ_A
p405
aV5U94_A
p406
aV4U9S_C
p407
aV4PP8_A
p408
aV2ID5_A
p409
aV5XAX_B
p410
aV4XAV_A
p411
aV4JFN_A
p412
aV3G0E_A
p413
aV6BAA_H
p414
aV2ZD9_B
p415
aV2ZD9_C
p416
aV3LCA_A
p417
aV3BIK_C
p418
aV3BI9_X
p419
aV3SFE_C
p420
aV3N85_A
p421
aV4N8E_B
p422
aV4URT_B
p423
aV4WGK_A
p424
aV5K47_D
p425
aV4I0P_F
p426
aV4I0J_A
p427
aV5I04_A
p428
aV5EIK_A
p429
aV5JNX_A
p430
aV2XN9_B
p431
aV3BN3_B
p432
aV2DUR_A
p433
aV2GK2_B
p434
aV5OGL_A
p435
aV5HM7_A
p436
aV2XME_A
p437
aV5CXF_B
p438
aV2DGJ_B
p439
aV4ALZ_A
p440
aV3ALA_A
p441
aV5V52_A
p442
aV3V5U_A
p443
aV4ZRP_D
p444
aV5ZRY_A
p445
aV3QLU_B
p446
a.