(lp0
V2WCP_A
p1
aV5WC5_B
p2
aV2PX8_A
p3
aV2PX8_B
p4
aV2PX4_A
p5
aV4PXK_A
p6
aV5KAF_A
p7
aV5KAF_C
p8
aV5KAF_c
p9
aV5KAI_a
p10
aV5KAI_C
p11
aV5KAI_c
p12
aV5KAI_D
p13
aV5M62_A
p14
aV5M62_B
p15
aV3LW5_A
p16
aV3LW5_B
p17
aV3LW0_B
p18
aV3LW0_C
p19
aV4LWY_L
p20
aV4LWY_H
p21
aV3J8F_7
p22
aV2J80_A
p23
aV2J80_B
p24
aV2J8C_L
p25
aV2J8C_H
p26
aV2J8C_M
p27
aV2J8D_L
p28
aV2J8D_H
p29
aV2J8D_M
p30
aV1KYO_C
p31
aV1KYO_P
p32
aV5AFB_A
p33
aV5GV3_A
p34
aV5GV3_B
p35
aV3DFL_A
p36
aV2DF3_A
p37
aV3VIV_A
p38
aV3VIV_B
p39
aV4NXV_C
p40
aV4NXT_D
p41
aV4NXT_A
p42
aV4NXT_B
p43
aV4NXT_C
p44
aV3NXU_A
p45
aV3NXU_B
p46
aV4NXU_A
p47
aV4NXU_B
p48
aV4NXU_C
p49
aV5THP_I
p50
aV5THP_C
p51
aV3TH4_T
p52
aV4G9D_A
p53
aV6G9I_B
p54
aV6G9B_B
p55
aV6G95_A
p56
aV6G95_B
p57
aV2G9H_A
p58
aV4G9A_D
p59
aV4G9A_A
p60
aV4G9A_B
p61
aV4G9A_C
p62
aV4MNQ_A
p63
aV5MN2_A
p64
aV4FNK_C
p65
aV4FNK_E
p66
aV4FNX_A
p67
aV4FNW_A
p68
aV4FN0_C
p69
aV4FN0_A
p70
aV4FN0_B
p71
aV5V2C_a
p72
aV5V2C_A
p73
aV5V2C_B
p74
aV5V2C_C
p75
aV5V2C_b
p76
aV5V2C_e
p77
aV5V2C_c
p78
aV5V2C_d
p79
aV5V2C_D
p80
aV1VGO_A
p81
aV5C5C_A
p82
aV4JU2_A
p83
aV4JU2_B
p84
aV3JUS_A
p85
aV3JUS_B
p86
aV4JUG_J
p87
aV4JUG_K
p88
aV4JUG_D
p89
aV4JUG_E
p90
aV4JU1_A
p91
aV4JU1_B
p92
aV4JUH_A
p93
aV4JUJ_A
p94
aV4JUJ_C
p95
aV4KE1_A
p96
aV4KE0_A
p97
aV4KE0_B
p98
aV3Q3G_G
p99
aV3Q3G_E
p100
aV5FTQ_A
p101
aV4FTV_A
p102
aV6FTB_A
p103
aV1BQU_A
p104
aV1BQU_B
p105
aV3NYA_A
p106
aV5O9A_D
p107
aV5O9A_A
p108
aV5O9A_B
p109
aV5O9A_C
p110
aV3O9W_A
p111
aV3LV3_A
p112
aV5N9B_A
p113
aV2XTM_A
p114
aV2XTM_B
p115
aV2XTU_A
p116
aV2XTV_A
p117
aV3EF7_A
p118
aV3EF7_B
p119
aV5EFI_A
p120
aV4CD3_A
p121
aV4NUV_A
p122
aV4NUV_B
p123
aV1FOA_A
p124
aV4FOD_A
p125
aV6FOS_A
p126
aV6FOS_B
p127
aV5T6X_A
p128
aV5T6N_C
p129
aV5T6N_E
p130
aV5T6W_A
p131
aV3T6E_L
p132
aV3T6E_H
p133
aV3T6E_M
p134
aV5T6Y_A
p135
aV3T6Q_A
p136
aV3T6Q_B
p137
aV4TUH_A
p138
aV4TUH_B
p139
aV5TUA_A
p140
aV4QZV_A
p141
aV4QZV_C
p142
aV4X32_A
p143
aV5BVW_A
p144
aV2BV5_A
p145
aV3BVD_A
p146
aV3KZI_H
p147
aV3KZI_Z
p148
aV3KZI_D
p149
aV3KZI_B
p150
aV3KZI_C
p151
aV5UG8_A
p152
aV5UG9_A
p153
aV3UG2_A
p154
aV5UGA_A
p155
aV5UGX_A
p156
aV5UGX_B
p157
aV5UGC_A
p158
aV1PB9_A
p159
aV4PBU_A
p160
aV4PBU_C
p161
aV5LFV_A
p162
aV5LFV_B
p163
aV5LFR_A
p164
aV5LFR_B
p165
aV5LFK_A
p166
aV5LFK_B
p167
aV3CTT_A
p168
aV4CTH_A
p169
aV1IVF_A
p170
aV1IVF_B
p171
aV1IVD_A
p172
aV1IVD_B
p173
aV1IVE_A
p174
aV1IVE_B
p175
aV3IVI_C
p176
aV3IVI_A
p177
aV3IVI_B
p178
aV1IVC_A
p179
aV1IVC_B
p180
aV5G4B_A
p181
aV3RSV_A
p182
aV4RSU_L
p183
aV4RSU_I
p184
aV4RSU_J
p185
aV4RSU_K
p186
aV4RSU_D
p187
aV4RSU_A
p188
aV4RSU_B
p189
aV4RSU_G
p190
aV4RSU_F
p191
aV4RSU_H
p192
aV4RSU_C
p193
aV4RSU_E
p194
aV4RS1_B
p195
aV3WPC_A
p196
aV3WPC_B
p197
aV3WPF_A
p198
aV3WPB_A
p199
aV3WPD_A
p200
aV4G2K_C
p201
aV4G2K_A
p202
aV6G2J_M
p203
aV6G2J_N
p204
aV6G2J_d
p205
aV5M2Q_A
p206
aV5M2Q_B
p207
aV4WEE_A
p208
aV3CZF_A
p209
aV5CZB_A
p210
aV5CZB_B
p211
aV4DLQ_A
p212
aV1DL2_A
p213
aV4DLD_A
p214
aV4DLD_B
p215
aV4DLO_A
p216
aV4DLO_B
p217
aV6B7H_A
p218
aV4OC1_A
p219
aV4OC5_A
p220
aV4OC0_A
p221
aV4OC4_A
p222
aV5OC0_A
p223
aV4OC2_A
p224
aV4OC3_A
p225
aV5DN2_B
p226
aV4P6V_B
p227
aV4P6V_E
p228
aV4J96_B
p229
aV4J97_A
p230
aV4J98_B
p231
aV4J99_D
p232
aV4J99_A
p233
aV4J99_B
p234
aV4J99_C
p235
aV4J95_A
p236
aV4J95_C
p237
aV1ZEF_A
p238
aV3ZE2_D
p239
aV3ZE2_A
p240
aV3ZE2_B
p241
aV3ZE2_C
p242
aV1ZEB_A
p243
aV1ZED_A
p244
aV4U7L_A
p245
aV5U74_A
p246
aV5U73_A
p247
aV5U72_A
p248
aV3CYN_C
p249
aV3CYN_A
p250
aV3CYN_B
p251
aV3CY4_A
p252
aV3CY4_B
p253
aV6G3W_A
p254
aV6G3W_B
p255
aV1EQG_A
p256
aV1EQG_B
p257
aV5EQB_A
p258
aV3EQV_A
p259
aV3EQV_B
p260
aV3EQU_A
p261
aV3EQU_B
p262
aV1EQH_A
p263
aV1EQH_B
p264
aV4RX0_A
p265
aV3WZD_A
p266
aV4WZN_A
p267
aV4WZN_B
p268
aV4KL1_D
p269
aV4KL1_A
p270
aV4KL1_C
p271
aV4L6V_6
p272
aV4L6V_f
p273
aV3NCC_B
p274
aV3NCB_B
p275
aV3NCF_B
p276
aV3NCE_B
p277
aV5KBY_B
p278
aV1KB9_C
p279
aV1KB9_E
p280
aV5KBW_A
p281
aV5KBW_B
p282
aV6EZN_A
p283
aV1GX0_A
p284
aV1GX0_B
p285
aV4YLQ_T
p286
aV3LQM_A
p287
aV3LQM_B
p288
aV4LQG_A
p289
aV4LQY_A
p290
aV4YED_D
p291
aV4YED_A
p292
aV4YED_C
p293
aV5YEW_C
p294
aV5YEW_A
p295
aV5YEW_B
p296
aV4U4S_B
p297
aV4U4T_A
p298
aV4U4W_A
p299
aV4U4W_B
p300
aV4U4X_A
p301
aV4U4X_B
p302
aV5KXI_D
p303
aV5KXI_A
p304
aV5KXI_B
p305
aV5KXI_E
p306
aV5KX6_B
p307
aV3VV8_A
p308
aV3VV7_A
p309
aV3VV6_A
p310
aV4FBY_A
p311
aV4FBY_G
p312
aV4FBY_C
p313
aV4FBY_P
p314
aV4MKA_A
p315
aV4MKA_B
p316
aV4MK9_B
p317
aV3MK0_A
p318
aV3MK1_A
p319
aV4MKC_A
p320
aV3MK2_A
p321
aV4MK8_B
p322
aV3B29_A
p323
aV3B2D_A
p324
aV3B2D_B
p325
aV5HZV_A
p326
aV1HZX_A
p327
aV1HZX_B
p328
aV5HZW_A
p329
aV3L71_C
p330
aV3L71_P
p331
aV3L73_C
p332
aV3L73_P
p333
aV3L72_C
p334
aV3L72_P
p335
aV1L7G_A
p336
aV3L70_C
p337
aV3L70_P
p338
aV1L7H_A
p339
aV4L72_A
p340
aV1L7F_A
p341
aV4EEA_C
p342
aV4EEA_A
p343
aV4EEA_B
p344
aV4EE5_C
p345
aV4EE5_A
p346
aV4EE5_B
p347
aV4EEO_C
p348
aV4EEO_A
p349
aV4EEO_B
p350
aV3EE7_D
p351
aV3EE7_A
p352
aV3EE7_B
p353
aV3EE7_C
p354
aV3EE5_C
p355
aV3EE5_A
p356
aV3EE5_B
p357
aV4EEM_C
p358
aV4EEM_A
p359
aV4EEM_B
p360
aV4EE4_C
p361
aV4EE4_A
p362
aV4EE4_B
p363
aV4EEG_C
p364
aV4EEG_A
p365
aV4EEG_B
p366
aV4EE3_C
p367
aV4EE3_A
p368
aV4EE3_B
p369
aV5O64_H
p370
aV3C6F_D
p371
aV3C6F_A
p372
aV2C6F_A
p373
aV2C6F_B
p374
aV5C65_A
p375
aV5C65_B
p376
aV1OPM_A
p377
aV5M8R_D
p378
aV5M8R_A
p379
aV5M8R_B
p380
aV5M8R_C
p381
aV5M8S_A
p382
aV5M8S_B
p383
aV5M8S_C
p384
aV5M8N_D
p385
aV5M8N_A
p386
aV5M8N_B
p387
aV5M8N_C
p388
aV5M8O_A
p389
aV5M8O_B
p390
aV5M8L_A
p391
aV5M8L_B
p392
aV5M8L_C
p393
aV5M8T_D
p394
aV5M8T_A
p395
aV5M8T_B
p396
aV5M8P_A
p397
aV5M8P_B
p398
aV5M8P_C
p399
aV5M8Q_D
p400
aV5M8Q_A
p401
aV5M8Q_B
p402
aV5M8Q_C
p403
aV5M8M_D
p404
aV5M8M_A
p405
aV5M8M_B
p406
aV2HP4_A
p407
aV2HP4_B
p408
aV3HPJ_D
p409
aV3HPJ_A
p410
aV2HPY_A
p411
aV2HPY_B
p412
aV4HT2_B
p413
aV4HT2_C
p414
aV5H3O_A
p415
aV4K33_A
p416
aV4I4W_A
p417
aV2I47_D
p418
aV3I4D_L
p419
aV3I4D_H
p420
aV3I4D_M
p421
aV5E8X_A
p422
aV5E8U_A
p423
aV5E8T_A
p424
aV3E8R_A
p425
aV3E8R_B
p426
aV1E87_A
p427
aV5E8W_A
p428
aV5E8N_A
p429
aV1E8T_A
p430
aV1E8T_B
p431
aV5E8V_A
p432
aV3RTM_A
p433
aV3RTN_A
p434
aV2Z7X_A
p435
aV2Z7X_B
p436
aV4Z7N_A
p437
aV4Z7N_C
p438
aV4Z77_D
p439
aV4Z77_A
p440
aV4Z78_D
p441
aV4Z78_A
p442
aV4Z78_G
p443
aV4Z7O_A
p444
aV4Z7O_C
p445
aV4Z76_D
p446
aV4Z76_A
p447
aV4Z7Q_D
p448
aV4Z7Q_A
p449
aV4Z7Q_C
p450
aV2B8H_D
p451
aV2B8H_A
p452
aV2B8H_B
p453
aV2B8H_C
p454
aV6B8O_A
p455
aV1YQ3_D
p456
aV2YQ6_A
p457
aV2YQ7_A
p458
aV3GD8_A
p459
aV4RP9_A
p460
aV1V84_A
p461
aV5X19_P
p462
aV5X1F_T
p463
aV5X1F_C
p464
aV5X1B_A
p465
aV5X1B_C
p466
aV2NOP_A
p467
aV2NOW_A
p468
aV4NOF_B
p469
aV4PV9_C
p470
aV3PVH_A
p471
aV4PV1_A
p472
aV4PV1_B
p473
aV5K8R_A
p474
aV5K8Y_B
p475
aV4K8O_A
p476
aV5UV8_G
p477
aV3W54_D
p478
aV3W54_A
p479
aV4W50_D
p480
aV4W50_A
p481
aV4W50_B
p482
aV4W50_C
p483
aV5W5C_B
p484
aV5W5C_F
p485
aV4MH5_A
p486
aV5MR3_D
p487
aV5MR3_H
p488
aV5MR3_B
p489
aV4MR8_A
p490
aV4MR8_B
p491
aV4MRG_A
p492
aV4MRF_A
p493
aV5MRH_A
p494
aV5MRI_A
p495
aV1XZZ_A
p496
aV5T4B_A
p497
aV5T4B_B
p498
aV5T4H_A
p499
aV5T4H_B
p500
aV5T4F_A
p501
aV5T4F_B
p502
aV5T4D_D
p503
aV5T4D_A
p504
aV5T4D_B
p505
aV5T4D_C
p506
aV5T4E_A
p507
aV5T4E_B
p508
aV3LD6_A
p509
aV3LD6_B
p510
aV3BRB_A
p511
aV3BRB_B
p512
aV1BRR_C
p513
aV1BRR_A
p514
aV1BRR_B
p515
aV4BR0_A
p516
aV4BR2_A
p517
aV3BL8_A
p518
aV3BL8_B
p519
aV5JIF_A
p520
aV5JIF_B
p521
aV4ZW9_A
p522
aV1VRN_H
p523
aV1VRN_M
p524
aV3VRJ_A
p525
aV3VRI_A
p526
aV1JD0_A
p527
aV1JD0_B
p528
aV5SYT_A
p529
aV1SYO_A
p530
aV1SYO_B
p531
aV3LEO_A
p532
aV5FEB_A
p533
aV4FE1_L
p534
aV4FE1_A
p535
aV4FE1_B
p536
aV6FEK_A
p537
aV3FEC_A
p538
aV5VKJ_A
p539
aV5VK2_a
p540
aV5VK2_c
p541
aV5VK2_A
p542
aV5VK2_B
p543
aV5VK2_C
p544
aV5VK2_b
p545
aV5VKM_A
p546
aV5ISZ_A
p547
aV4ISO_A
p548
aV5ISM_A
p549
aV5ISM_B
p550
aV4IS5_A
p551
aV4ISL_A
p552
aV3KGR_B
p553
aV3BB1_A
p554
aV3BB1_F
p555
aV3BB1_G
p556
aV3BB1_C
p557
aV3BB1_E
p558
aV3BBR_B
p559
aV3BBT_D
p560
aV3BBT_B
p561
aV3ZHG_A
p562
aV3ZHG_C
p563
aV5BS0_A
p564
aV6BSW_A
p565
aV6CEX_C
p566
aV5FDW_A
p567
aV3FDM_A
p568
aV3FDM_B
p569
aV5FDY_A
p570
aV2DYS_T
p571
aV2DYS_G
p572
aV2DYS_C
p573
aV2DYS_P
p574
aV4DYM_A
p575
aV3D5O_F
p576
aV5D5M_C
p577
aV4CKI_A
p578
aV4CKJ_A
p579
aV4O58_A
p580
aV5O5R_A
p581
aV5O5U_A
p582
aV5O5T_A
p583
aV3D18_A
p584
aV6D1Z_A
p585
aV6D1W_D
p586
aV6D1W_A
p587
aV6D1W_B
p588
aV6D1W_C
p589
aV5B1R_A
p590
aV6B1E_A
p591
aV6B1E_B
p592
aV5B1A_T
p593
aV5B1A_A
p594
aV5B1A_B
p595
aV5B1A_P
p596
aV6B1O_A
p597
aV6B1O_B
p598
aV5B1B_N
p599
aV5B1B_G
p600
aV5B1B_C
p601
aV5B1B_O
p602
aV4IHO_A
p603
aV4IHB_D
p604
aV4IHB_B
p605
aV4IHB_E
p606
aV2O7L_A
p607
aV1O7Q_A
p608
aV1O7Q_B
p609
aV1PU4_A
p610
aV1PU4_B
p611
aV1NQE_A
p612
aV1NQG_A
p613
aV1NQH_A
p614
aV5NQA_A
p615
aV5NQA_B
p616
aV2QQI_A
p617
aV2QQJ_A
p618
aV4FFW_A
p619
aV4FFW_B
p620
aV3FF3_A
p621
aV3HFX_A
p622
aV4RET_A
p623
aV4RET_C
p624
aV4ZLP_A
p625
aV4ZLP_B
p626
aV3ZLE_L
p627
aV3ZLE_I
p628
aV3ZLE_J
p629
aV3ZLE_D
p630
aV3ZLE_A
p631
aV3ZLE_B
p632
aV3ZLE_G
p633
aV3ZLE_F
p634
aV3ZLE_H
p635
aV3ZLE_C
p636
aV3ZLE_E
p637
aV5ZLN_A
p638
aV5ZLN_B
p639
aV4TWT_D
p640
aV4TWT_A
p641
aV4TWT_B
p642
aV4TWT_C
p643
aV4TWD_I
p644
aV4TWD_J
p645
aV4TWD_D
p646
aV4TWD_A
p647
aV4TWD_B
p648
aV4TWD_G
p649
aV4TWD_F
p650
aV4TWD_H
p651
aV4TWD_C
p652
aV4TWD_E
p653
aV4TW2_A
p654
aV4TW2_B
p655
aV4TWE_A
p656
aV4TWE_B
p657
aV5U17_A
p658
aV5U17_C
p659
aV4U1H_A
p660
aV4U1N_A
p661
aV4U14_A
p662
aV4U1L_D
p663
aV4U1L_A
p664
aV4U1K_D
p665
aV4U1K_A
p666
aV4U1I_A
p667
aV4U15_A
p668
aV4U15_B
p669
aV3U11_A
p670
aV3U11_B
p671
aV5U16_A
p672
aV5U16_C
p673
aV1U19_A
p674
aV1U19_B
p675
aV5U1R_A
p676
aV5U1R_C
p677
aV1U12_A
p678
aV1U12_B
p679
aV4U1S_A
p680
aV4U1M_A
p681
aV3TOP_A
p682
aV3TOP_B
p683
aV5DDH_A
p684
aV4QDH_A
p685
aV4QDH_B
p686
aV4QDS_A
p687
aV4QDQ_A
p688
aV4QDQ_B
p689
aV5JWE_E
p690
aV5JWE_A
p691
aV5JWE_G
p692
aV5JWE_C
p693
aV5JWD_A
p694
aV5NM4_A
p695
aV5NMR_A
p696
aV2NMR_A
p697
aV5NMI_C
p698
aV5NMI_E
p699
aV5NMF_A
p700
aV5NMF_F
p701
aV5NMK_A
p702
aV1NMC_A
p703
aV1NMC_N
p704
aV5NMT_A
p705
aV5NMT_B
p706
aV5NMG_A
p707
aV4NM8_A
p708
aV4NM8_C
p709
aV4NM8_E
p710
aV5NME_F
p711
aV5NMH_A
p712
aV1NMB_N
p713
aV3RGN_A
p714
aV2RGU_A
p715
aV2RGU_B
p716
aV3RGM_A
p717
aV2O01_A
p718
aV2O01_B
p719
aV3O0R_B
p720
aV4GJX_D
p721
aV4GJX_A
p722
aV4GJX_F
p723
aV2GJ6_A
p724
aV4GJ0_D
p725
aV4GJ0_A
p726
aV4GJ0_B
p727
aV4GJ0_C
p728
aV5GJE_B
p729
aV2Y03_B
p730
aV2Y02_B
p731
aV2Y01_B
p732
aV2Y04_B
p733
aV2Y00_B
p734
aV4F65_A
p735
aV3F6K_A
p736
aV4F63_A
p737
aV4F63_B
p738
aV4F64_A
p739
aV4F64_B
p740
aV5ML9_A
p741
aV3MLJ_A
p742
aV2ONC_D
p743
aV2ONC_A
p744
aV2ONC_C
p745
aV5FV9_A
p746
aV5FV9_F
p747
aV5FV9_C
p748
aV5FV9_E
p749
aV1FV1_D
p750
aV1FV1_B
p751
aV3FVZ_A
p752
aV6FVZ_A
p753
aV6FVZ_B
p754
aV5X9H_A
p755
aV5X9H_B
p756
aV3ZPR_B
p757
aV3ZPQ_B
p758
aV2ZPL_C
p759
aV2ZPL_B
p760
aV3P50_D
p761
aV3P50_A
p762
aV3P50_B
p763
aV3P50_C
p764
aV3P50_E
p765
aV4P57_C
p766
aV4YMA_A
p767
aV4YMA_B
p768
aV4LU3_A
p769
aV3RU1_A
p770
aV4HQ1_A
p771
aV5UYU_A
p772
aV3UY6_A
p773
aV3UY6_B
p774
aV2WML_A
p775
aV4GI0_A
p776
aV2GIX_D
p777
aV2GIX_A
p778
aV5GIJ_B
p779
aV6GID_A
p780
aV6GIN_A
p781
aV6GIN_B
p782
aV6GI6_A
p783
aV6GIP_A
p784
aV4XXS_A
p785
aV4XXJ_C
p786
aV4XXJ_A
p787
aV4XXJ_B
p788
aV5MX2_C
p789
aV5MX2_c
p790
aV5MX2_d
p791
aV5MX2_D
p792
aV2WSC_L
p793
aV2WSC_B
p794
aV2WSC_A
p795
aV2WSF_L
p796
aV2WSF_A
p797
aV2WSF_B
p798
aV2WSE_L
p799
aV2WSE_B
p800
aV2WSE_A
p801
aV3WSZ_A
p802
aV3WS6_A
p803
aV3WS6_B
p804
aV5WS6_B
p805
aV5WS6_b
p806
aV5WS6_d
p807
aV5WS6_D
p808
aV3WSY_A
p809
aV5WS5_B
p810
aV5WS5_b
p811
aV5WS5_d
p812
aV5WS5_D
p813
aV3WSX_A
p814
aV4RYO_A
p815
aV4RYN_A
p816
aV3RY4_A
p817
aV4RYR_A
p818
aV5VCM_A
p819
aV5VCM_B
p820
aV2VC2_B
p821
aV2VC2_A
p822
aV5VCG_A
p823
aV5VCE_A
p824
aV5VCC_A
p825
aV5VC1_A
p826
aV5VC0_A
p827
aV5VCS_A
p828
aV5VCS_B
p829
aV3VCL_A
p830
aV5VCD_A
p831
aV3FXI_A
p832
aV3FXI_B
p833
aV4PNZ_A
p834
aV4PNZ_B
p835
aV2PNO_L
p836
aV2PNO_J
p837
aV2PNO_K
p838
aV1WVJ_A
p839
aV4PJF_C
p840
aV4PJA_C
p841
aV4PJX_A
p842
aV4PJX_C
p843
aV4PJD_C
p844
aV4PJI_C
p845
aV4PJ0_a
p846
aV4PJ0_A
p847
aV4PJ0_C
p848
aV4PJ0_c
p849
aV4PJE_A
p850
aV4PJE_C
p851
aV4PJ9_A
p852
aV4PJH_A
p853
aV4PJH_C
p854
aV4PJB_C
p855
aV5EU3_A
p856
aV5EU4_A
p857
aV3EU9_C
p858
aV5EUS_A
p859
aV5EUU_A
p860
aV5EU5_A
p861
aV5EUX_A
p862
aV5EU6_A
p863
aV5EUW_A
p864
aV2NWF_A
p865
aV3NW9_A
p866
aV3NWB_A
p867
aV3NWE_A
p868
aV3S3C_A
p869
aV3S3F_A
p870
aV3S3F_B
p871
aV3S3H_A
p872
aV3S3B_A
p873
aV3S3E_A
p874
aV3S3E_B
p875
aV3S33_A
p876
aV3S3K_B
p877
aV3S3D_A
p878
aV3S38_A
p879
aV3S3A_A
p880
aV3S39_A
p881
aV5IRX_D
p882
aV5IRX_A
p883
aV5IRX_B
p884
aV5IRX_C
p885
aV5IRZ_D
p886
aV5IRZ_B
p887
aV5IRZ_E
p888
aV5IRZ_C
p889
aV4IRE_D
p890
aV4GWM_A
p891
aV4GWM_B
p892
aV4GWN_A
p893
aV6BFW_A
p894
aV6BFW_B
p895
aV6BFE_A
p896
aV6BFE_B
p897
aV6BFD_A
p898
aV6BFD_B
p899
aV4BFE_C
p900
aV6BFX_A
p901
aV6BFX_B
p902
aV4LZ7_C
p903
aV4LZ7_B
p904
aV5LZR_A
p905
aV5LZR_B
p906
aV4LZ5_C
p907
aV4LZ5_A
p908
aV4LZ5_B
p909
aV4LZ8_C
p910
aV4LZ8_A
p911
aV4LZ8_B
p912
aV5LZQ_A
p913
aV5LZQ_B
p914
aV5UHN_A
p915
aV5UHN_B
p916
aV3V0N_A
p917
aV3V0N_B
p918
aV1V0Z_D
p919
aV1V0Z_A
p920
aV1V0Z_B
p921
aV1V0Z_C
p922
aV5V0N_C
p923
aV5V0N_B
p924
aV2V0M_D
p925
aV2V0M_A
p926
aV2V0M_B
p927
aV2V0M_C
p928
aV3V0Q_A
p929
aV3V0Q_B
p930
aV3TLO_A
p931
aV3TLO_B
p932
aV1VSO_A
p933
aV5VSN_A
p934
aV2VS4_A
p935
aV2VS4_B
p936
aV5GTH_B
p937
aV5GTH_b
p938
aV5GTH_d
p939
aV5GTH_D
p940
aV5GTI_B
p941
aV5GTI_b
p942
aV5GTI_h
p943
aV5GTI_d
p944
aV5GTI_D
p945
aV3B44_A
p946
aV3B4R_A
p947
aV3B4R_B
p948
aV3B45_A
p949
aV4I22_A
p950
aV5VAK_A
p951
aV3TVM_E
p952
aV1TVH_D
p953
aV1TVH_A
p954
aV4TVZ_A
p955
aV4TVZ_B
p956
aV1TVB_D
p957
aV1TVB_A
p958
aV1MWA_H
p959
aV1MWA_I
p960
aV2OX9_D
p961
aV2OX9_A
p962
aV2OX9_B
p963
aV2OX9_C
p964
aV6CPR_A
p965
aV6CPR_C
p966
aV2FK3_H
p967
aV2FK3_E
p968
aV5FKP_A
p969
aV3MPK_A
p970
aV2RC8_A
p971
aV2RC8_B
p972
aV2RCB_A
p973
aV4RCD_A
p974
aV2RC7_A
p975
aV2RC7_B
p976
aV2RCA_A
p977
aV4RCF_A
p978
aV4OTW_A
p979
aV2QS4_A
p980
aV2QS4_B
p981
aV2QS4_C
p982
aV5HG8_A
p983
aV5HGJ_A
p984
aV5HG9_A
p985
aV5HG5_A
p986
aV2HG3_L
p987
aV2HG3_H
p988
aV2HG3_M
p989
aV5HGI_A
p990
aV2HG9_L
p991
aV2HG9_H
p992
aV2HG9_M
p993
aV3S8F_A
p994
aV3S8G_A
p995
aV2XWT_C
p996
aV5XWD_A
p997
aV4QI1_A
p998
aV4QI1_B
p999
aV3QI9_A
p1000
aV1ZIW_A
p1001
aV5ZJI_A
p1002
aV4ZJ8_A
p1003
aV2ZJC_C
p1004
aV2ZJC_A
p1005
aV2ZJC_B
p1006
aV4LXR_A
p1007
aV4LXA_B
p1008
aV4LXK_B
p1009
aV1YV2_A
p1010
aV1ZXC_A
p1011
aV1ZXC_B
p1012
aV3MIF_A
p1013
aV3MIG_A
p1014
aV3MIE_A
p1015
aV3MIB_A
p1016
aV3MID_A
p1017
aV3MIC_A
p1018
aV3TDJ_A
p1019
aV3TDJ_B
p1020
aV5H0U_A
p1021
aV4H0L_A
p1022
aV4H0L_B
p1023
aV3H06_G
p1024
aV2H0B_D
p1025
aV2H0B_A
p1026
aV2H0B_B
p1027
aV3H03_D
p1028
aV3SDA_A
p1029
aV1SDW_A
p1030
aV3SDY_A
p1031
aV3C33_A
p1032
aV3C33_B
p1033
aV3C35_A
p1034
aV3C35_B
p1035
aV3C36_A
p1036
aV3C36_B
p1037
aV3C31_A
p1038
aV3C31_B
p1039
aV3C32_A
p1040
aV3C32_B
p1041
aV3C34_A
p1042
aV3C34_B
p1043
aV5C3F_A
p1044
aV5XJ7_A
p1045
aV5XJ5_A
p1046
aV5XJ9_A
p1047
aV1KPL_D
p1048
aV1KPL_A
p1049
aV1KPL_B
p1050
aV3KPE_A
p1051
aV1BY5_A
p1052
aV1BY3_A
p1053
aV5LLS_D
p1054
aV5LLS_A
p1055
aV5LLS_B
p1056
aV5LLS_C
p1057
aV4X2L_A
p1058
aV3X2Q_N
p1059
aV3X2Q_G
p1060
aV3X2Q_P
p1061
aV5T77_A
p1062
aV3F78_C
p1063
aV3F78_A
p1064
aV3F78_B
p1065
aV4F7B_D
p1066
aV4F7B_A
p1067
aV4F7B_B
p1068
aV4F7B_F
p1069
aV4F7B_E
p1070
aV3F74_B
p1071
aV5F7D_A
p1072
aV5OEW_C
p1073
aV5HJ2_D
p1074
aV5HJ2_F
p1075
aV5HJ2_C
p1076
aV4HJO_A
p1077
aV2HJ6_L
p1078
aV2HJ6_H
p1079
aV2HJ6_M
p1080
aV4ZMN_A
p1081
aV4ZMW_B
p1082
aV4ZML_A
p1083
aV4ZMV_A
p1084
aV4ZMV_B
p1085
aV5FL4_D
p1086
aV5FL4_A
p1087
aV5FL4_B
p1088
aV5FL4_C
p1089
aV5FL6_D
p1090
aV5FL6_A
p1091
aV5FL6_B
p1092
aV5FL6_C
p1093
aV5FL5_D
p1094
aV5FL5_A
p1095
aV5FL5_B
p1096
aV5FL5_C
p1097
aV3W09_A
p1098
aV1W0V_A
p1099
aV1W0W_A
p1100
aV1W0G_A
p1101
aV1W0F_A
p1102
aV5JR2_D
p1103
aV5JR2_A
p1104
aV5JR2_B
p1105
aV5JR2_C
p1106
aV4JRZ_A
p1107
aV2R1F_A
p1108
aV2R1F_B
p1109
aV1UJW_A
p1110
aV5HDB_D
p1111
aV5HDB_A
p1112
aV5HDB_C
p1113
aV3HD7_A
p1114
aV3HD7_F
p1115
aV3HD7_E
p1116
aV4MMZ_A
p1117
aV1MM6_A
p1118
aV1MM6_B
p1119
aV1MM7_C
p1120
aV5EH1_A
p1121
aV3EH3_A
p1122
aV3EH4_A
p1123
aV3EH5_A
p1124
aV1EHK_A
p1125
aV4IXQ_a
p1126
aV4IXQ_A
p1127
aV4IXQ_C
p1128
aV4IXQ_c
p1129
aV5IXT_A
p1130
aV3IXA_D
p1131
aV3IXA_A
p1132
aV2IXG_A
p1133
aV4IXR_a
p1134
aV4IXR_A
p1135
aV4IXR_C
p1136
aV4IXR_c
p1137
aV2IXF_D
p1138
aV2IXF_A
p1139
aV2IXF_B
p1140
aV2IXF_C
p1141
aV5IXQ_A
p1142
aV4ADI_C
p1143
aV4ADI_A
p1144
aV4ADI_B
p1145
aV4ADG_C
p1146
aV4ADG_A
p1147
aV4ADG_B
p1148
aV4ADJ_C
p1149
aV4ADJ_A
p1150
aV4ADJ_B
p1151
aV3MYJ_A
p1152
aV5MYB_A
p1153
aV5MYB_B
p1154
aV5MYA_A
p1155
aV5MYA_B
p1156
aV5MY6_A
p1157
aV1MQG_A
p1158
aV1MQD_A
p1159
aV2PY3_A
p1160
aV2PY3_B
p1161
aV4PYL_A
p1162
aV5DVX_A
p1163
aV5DVX_B
p1164
aV5I6X_A
p1165
aV5XDQ_B
p1166
aV5XDQ_C
p1167
aV5XDQ_J
p1168
aV5XDX_W
p1169
aV5XDX_C
p1170
aV5XDX_J
p1171
aV5XDX_P
p1172
aV4XDJ_B
p1173
aV5JQB_B
p1174
aV4JQX_A
p1175
aV5JQ7_B
p1176
aV5JQY_A
p1177
aV5JQ3_B
p1178
aV5BUO_A
p1179
aV5BUU_A
p1180
aV5BUU_B
p1181
aV6C97_A
p1182
aV5C9J_A
p1183
aV5C94_A
p1184
aV6C99_A
p1185
aV4KFQ_A
p1186
aV4KFQ_B
p1187
aV4CNC_A
p1188
aV4CNC_B
p1189
aV6CNK_D
p1190
aV6CNK_A
p1191
aV6CNK_B
p1192
aV6CNK_C
p1193
aV6CNK_E
p1194
aV6CNJ_D
p1195
aV6CNJ_A
p1196
aV6CNJ_B
p1197
aV6CNJ_C
p1198
aV6CNJ_E
p1199
aV4V11_A
p1200
aV4QRC_A
p1201
aV5MFW_A
p1202
aV5MFW_B
p1203
aV5MFQ_A
p1204
aV5MFQ_B
p1205
aV5MFV_A
p1206
aV3MF5_A
p1207
aV2QMJ_A
p1208
aV2QC1_B
p1209
aV2ITO_A
p1210
aV2ITZ_A
p1211
aV2ITY_A
p1212
aV5MUR_B
p1213
aV5MUR_E
p1214
aV5MUO_D
p1215
aV5MUO_A
p1216
aV5MUO_B
p1217
aV5MUO_E
p1218
aV5MER_D
p1219
aV5MER_A
p1220
aV5MEN_A
p1221
aV5MEO_A
p1222
aV3ME4_A
p1223
aV3ME4_B
p1224
aV4ZCJ_A
p1225
aV4ZCU_C
p1226
aV4ZCU_A
p1227
aV4ZCU_B
p1228
aV4ZCV_A
p1229
aV4ZCV_B
p1230
aV4ZCV_C
p1231
aV5JBS_A
p1232
aV2JBK_A
p1233
aV5N6B_A
p1234
aV5N6H_A
p1235
aV5N6H_B
p1236
aV5N6L_A
p1237
aV5N6L_B
p1238
aV5N6M_A
p1239
aV4DX5_A
p1240
aV4DX5_B
p1241
aV4DX5_C
p1242
aV4DX1_A
p1243
aV3DX6_A
p1244
aV4DX7_A
p1245
aV4DX7_B
p1246
aV4DX7_C
p1247
aV4DX2_B
p1248
aV3DX7_A
p1249
aV3DX8_A
p1250
aV5GRD_A
p1251
aV5GR8_D
p1252
aV5GR8_A
p1253
aV5GRG_A
p1254
aV5GR9_B
p1255
aV5D9S_A
p1256
aV6D9H_R
p1257
aV1D9K_G
p1258
aV1D9K_C
p1259
aV2H88_D
p1260
aV5H8F_A
p1261
aV5H8F_B
p1262
aV4H8W_C
p1263
aV2H89_D
p1264
aV5I3X_A
p1265
aV2I37_A
p1266
aV2I37_B
p1267
aV5I3W_A
p1268
aV4I3N_A
p1269
aV5I3V_A
p1270
aV2I36_C
p1271
aV2I36_A
p1272
aV2I36_B
p1273
aV5NNI_B
p1274
aV1NNC_A
p1275
aV5NNJ_D
p1276
aV5NNJ_A
p1277
aV5NNJ_B
p1278
aV5NNJ_C
p1279
aV4NZD_B
p1280
aV4NZR_M
p1281
aV1XOG_A
p1282
aV2XOV_A
p1283
aV2XOW_A
p1284
aV5XOT_A
p1285
aV1XOE_A
p1286
aV3AP1_A
p1287
aV3AP1_B
p1288
aV3AP2_A
p1289
aV3AP2_B
p1290
aV2APC_A
p1291
aV4APX_A
p1292
aV4APX_B
p1293
aV3S2V_A
p1294
aV3S2V_B
p1295
aV3S2K_A
p1296
aV3S2K_B
p1297
aV4L4I_A
p1298
aV3L4W_A
p1299
aV3L4X_A
p1300
aV4L4V_A
p1301
aV4L4V_C
p1302
aV3L4Y_A
p1303
aV5L4E_D
p1304
aV5L4E_A
p1305
aV5L4E_B
p1306
aV5L4E_E
p1307
aV3L4Z_A
p1308
aV4ZNE_A
p1309
aV5JZ6_A
p1310
aV5JZ8_A
p1311
aV5JZA_A
p1312
aV4JZJ_D
p1313
aV4JZ0_A
p1314
aV4JZL_A
p1315
aV4JZL_C
p1316
aV4A79_A
p1317
aV4A79_B
p1318
aV4A7A_A
p1319
aV4A7A_B
p1320
aV4N78_B
p1321
aV4N7K_L
p1322
aV4N7K_H
p1323
aV4N7K_M
p1324
aV4N7E_A
p1325
aV4N7U_A
p1326
aV4N7I_A
p1327
aV5AZC_A
p1328
aV4R6U_C
p1329
aV3R6T_A
p1330
aV4R6V_A
p1331
aV4UB6_B
p1332
aV4UB6_E
p1333
aV4UB6_b
p1334
aV4UB6_d
p1335
aV4UB6_D
p1336
aV4ZSQ_A
p1337
aV4ZSQ_B
p1338
aV4ZSM_A
p1339
aV2ZSV_A
p1340
aV2ZSV_C
p1341
aV4ZSP_A
p1342
aV4ZSP_B
p1343
aV5SZQ_A
p1344
aV3B3I_A
p1345
aV5B34_A
p1346
aV5B3S_W
p1347
aV5B3S_B
p1348
aV5B3S_G
p1349
aV5B3S_C
p1350
aV5B3S_I
p1351
aV4B3V_C
p1352
aV4B3V_A
p1353
aV4B3V_B
p1354
aV2CMR_A
p1355
aV2CML_D
p1356
aV2CML_A
p1357
aV2CML_B
p1358
aV2CML_C
p1359
aV3ROL_C
p1360
aV2RFX_A
p1361
aV3RFM_A
p1362
aV3P2T_A
p1363
aV4TNJ_C
p1364
aV4TNJ_c
p1365
aV3TNZ_A
p1366
aV3TNZ_B
p1367
aV4TNH_C
p1368
aV4TNH_c
p1369
aV4TNI_C
p1370
aV4TNI_c
p1371
aV4TNK_C
p1372
aV4TNK_c
p1373
aV4TNW_A
p1374
aV4TNW_B
p1375
aV5HNS_A
p1376
aV5HNS_B
p1377
aV3ETO_A
p1378
aV3ETO_B
p1379
aV4ETT_A
p1380
aV4ETU_A
p1381
aV6ET4_A
p1382
aV2HR7_A
p1383
aV2HR7_B
p1384
aV4DAJ_D
p1385
aV4DAJ_A
p1386
aV4DAJ_B
p1387
aV4DAJ_C
p1388
aV4PE5_D
p1389
aV4PE5_A
p1390
aV4PE5_B
p1391
aV4PE5_C
p1392
aV2PED_A
p1393
aV2PED_B
p1394
aV4HBQ_B
p1395
aV5LBD_A
p1396
aV5LBD_B
p1397
aV1LBC_C
p1398
aV1LBC_A
p1399
aV3UL8_A
p1400
aV3ULV_A
p1401
aV3ULU_A
p1402
aV3UL7_A
p1403
aV3UL9_A
p1404
aV1W21_D
p1405
aV1W21_A
p1406
aV1W21_B
p1407
aV1W21_C
p1408
aV3W2T_A
p1409
aV3W2T_B
p1410
aV1W20_D
p1411
aV1W20_A
p1412
aV1W20_B
p1413
aV1W20_C
p1414
aV3IIQ_A
p1415
aV3IIQ_B
p1416
aV2XYU_A
p1417
aV2XY2_A
p1418
aV4I12_A
p1419
aV4I18_R
p1420
aV4I18_C
p1421
aV2I1Y_A
p1422
aV2I1Y_B
p1423
aV6D05_A
p1424
aV6D05_B
p1425
aV6D04_A
p1426
aV6D04_B
p1427
aV6D03_A
p1428
aV6D03_B
p1429
aV2QPD_A
p1430
aV2QPE_A
p1431
aV3H98_A
p1432
aV3H98_B
p1433
aV3H9H_D
p1434
aV3H9H_A
p1435
aV3H9S_A
p1436
aV3N06_B
p1437
aV4N07_C
p1438
aV4N07_A
p1439
aV4N07_B
p1440
aV4N0O_C
p1441
aV4N0O_E
p1442
aV4N0N_A
p1443
aV3N0P_B
p1444
aV3FQT_A
p1445
aV3FQU_A
p1446
aV4FQR_M
p1447
aV4FQR_U
p1448
aV4FQR_O
p1449
aV4FQR_S
p1450
aV4FQR_C
p1451
aV4FQR_G
p1452
aV4FQR_I
p1453
aV4FQR_Q
p1454
aV3FQX_A
p1455
aV3FQL_A
p1456
aV3FQR_A
p1457
aV3FQQ_A
p1458
aV3FQQ_B
p1459
aV3FQN_A
p1460
aV3FQM_A
p1461
aV3FQM_B
p1462
aV1G1R_C
p1463
aV1G1Q_C
p1464
aV4G1F_D
p1465
aV4G1F_A
p1466
aV4G1F_B
p1467
aV4G1F_C
p1468
aV5IE1_A
p1469
aV3QBJ_A
p1470
aV3QBJ_B
p1471
aV4OME_A
p1472
aV3OM0_A
p1473
aV6CI0_D
p1474
aV6CI0_B
p1475
aV2CIK_A
p1476
aV2CII_A
p1477
aV5VEM_C
p1478
aV5VEM_A
p1479
aV5VEM_B
p1480
aV5VEN_A
p1481
aV5VEN_B
p1482
aV3HVG_C
p1483
aV4L29_a
p1484
aV4L29_W
p1485
aV4L29_M
p1486
aV4L29_K
p1487
aV4L29_A
p1488
aV4L29_C
p1489
aV4L29_U
p1490
aV4L29_O
p1491
aV4L29_S
p1492
aV4L29_E
p1493
aV4L29_G
p1494
aV4L29_I
p1495
aV4L29_Q
p1496
aV4L29_Y
p1497
aV2A06_C
p1498
aV2A06_E
p1499
aV2A06_P
p1500
aV5D3I_A
p1501
aV6D3N_A
p1502
aV3D3V_A
p1503
aV3D38_H
p1504
aV3P4W_D
p1505
aV3P4W_A
p1506
aV3P4W_B
p1507
aV3P4W_C
p1508
aV3P4W_E
p1509
aV4P45_A
p1510
aV4P4D_A
p1511
aV4P44_A
p1512
aV4P4J_A
p1513
aV4P4B_A
p1514
aV4P4I_A
p1515
aV4P4F_A
p1516
aV4P4E_A
p1517
aV4QF9_C
p1518
aV4QF9_B
p1519
aV3QFJ_A
p1520
aV1QFG_A
p1521
aV2QF3_C
p1522
aV3QFD_D
p1523
aV3QFD_A
p1524
aV3SM9_A
p1525
aV5NR9_A
p1526
aV5NR9_B
p1527
aV5NRD_A
p1528
aV4D6U_R
p1529
aV4D6U_C
p1530
aV4D6U_D
p1531
aV4D6U_Q
p1532
aV4D6U_P
p1533
aV4D6Z_A
p1534
aV4D6T_R
p1535
aV4D6T_C
p1536
aV4D6T_D
p1537
aV4D6T_Q
p1538
aV4D6T_P
p1539
aV4JJU_A
p1540
aV4JJU_B
p1541
aV5JJF_A
p1542
aV5JJN_A
p1543
aV5JJE_A
p1544
aV5JJJ_A
p1545
aV5DQQ_A
p1546
aV5DQX_A
p1547
aV5DQX_B
p1548
aV5DQ0_A
p1549
aV3FAS_A
p1550
aV3FAS_B
p1551
aV5FA4_A
p1552
aV3FAT_C
p1553
aV3FAT_A
p1554
aV3FAT_B
p1555
aV5FA3_A
p1556
aV4FAT_A
p1557
aV5U6Q_C
p1558
aV4PIR_D
p1559
aV4PIR_A
p1560
aV4PIR_B
p1561
aV4PIR_C
p1562
aV4PIR_E
p1563
aV2IC8_A
p1564
aV5ICT_A
p1565
aV4XI5_A
p1566
aV3C1J_A
p1567
aV5C14_A
p1568
aV5C14_B
p1569
aV6C15_A
p1570
aV6C1R_B
p1571
aV3V3Z_L
p1572
aV3V3Z_H
p1573
aV3V3Z_M
p1574
aV3V3Y_M
p1575
aV3V3C_L
p1576
aV3V3C_K
p1577
aV3V3C_N
p1578
aV3V3C_A
p1579
aV5AQ0_A
p1580
aV5AQ0_B
p1581
aV3MJ9_A
p1582
aV3TGX_I
p1583
aV3TGX_M
p1584
aV3TGX_K
p1585
aV3TGX_O
p1586
aV3TGX_A
p1587
aV3TGX_G
p1588
aV3TGX_C
p1589
aV3TGX_E
p1590
aV3TGU_C
p1591
aV3TGU_P
p1592
aV4W4O_C
p1593
aV4W4Z_D
p1594
aV4W4Z_A
p1595
aV4W4Z_B
p1596
aV4W4Z_C
p1597
aV4WJ5_D
p1598
aV4WJ5_A
p1599
aV4WJL_A
p1600
aV4WJL_B
p1601
aV3WJL_C
p1602
aV4WJK_A
p1603
aV4WJK_B
p1604
aV4JVQ_A
p1605
aV4JVQ_B
p1606
aV5DZW_A
p1607
aV3SAJ_A
p1608
aV3SAJ_C
p1609
aV2YNA_A
p1610
aV2YNA_B
p1611
aV3WU2_a
p1612
aV3WU2_A
p1613
aV3WU2_B
p1614
aV3WU2_C
p1615
aV3WU2_E
p1616
aV3WU2_b
p1617
aV3WU2_e
p1618
aV3WU2_c
p1619
aV3WU2_h
p1620
aV3WU2_d
p1621
aV3WU2_D
p1622
aV4YGB_A
p1623
aV4YGB_C
p1624
aV5YGY_A
p1625
aV3CAP_A
p1626
aV3IK6_E
p1627
aV3IK6_H
p1628
aV3IK6_B
p1629
aV5IKB_A
p1630
aV4O1Z_A
p1631
aV4O1Z_B
p1632
aV3U0X_A
p1633
aV3U0X_B
p1634
aV3U0Y_A
p1635
aV3U0Y_B
p1636
aV3U0P_A
p1637
aV3U0P_C
p1638
aV5LGD_A
p1639
aV5JEI_A
p1640
aV3UTS_F
p1641
aV4A4Y_A
p1642
aV1A4G_A
p1643
aV1A4G_B
p1644
aV3A4U_A
p1645
aV2A4O_A
p1646
aV3CH1_D
p1647
aV3CH1_A
p1648
aV3CH1_G
p1649
aV3CH1_J
p1650
aV6CH2_A
p1651
aV6CH2_B
p1652
aV2NVG_A
p1653
aV2NVE_A
p1654
aV2NVF_A
p1655
aV3T1F_A
p1656
aV5T1W_A
p1657
aV1JGD_A
p1658
aV4IY6_A
p1659
aV4IY5_A
p1660
aV4IY5_B
p1661
aV5D29_A
p1662
aV2BCC_C
p1663
aV1BCC_E
p1664
aV2BCK_D
p1665
aV2BCK_A
p1666
aV2OO4_A
p1667
aV2OO4_B
p1668
aV3PCQ_A
p1669
aV3PCQ_B
p1670
aV5WYX_B
p1671
aV5M7B_A
p1672
aV5M7D_A
p1673
aV4M7E_A
p1674
aV4M7E_B
p1675
aV4M7H_A
p1676
aV4M7H_B
p1677
aV5M79_A
p1678
aV2AM5_A
p1679
aV4AMJ_B
p1680
aV2AM3_A
p1681
aV2AM4_A
p1682
aV5P9V_A
p1683
aV5P97_A
p1684
aV5P9P_A
p1685
aV5P9Y_A
p1686
aV5P96_A
p1687
aV5P9Q_A
p1688
aV5P9W_A
p1689
aV5P9N_A
p1690
aV5P90_A
p1691
aV5P9O_A
p1692
aV5ENW_A
p1693
aV6EN5_A
p1694
aV6EN5_B
p1695
aV6EN5_C
p1696
aV5ENM_A
p1697
aV4ENE_A
p1698
aV4ENE_B
p1699
aV6EN6_D
p1700
aV6EN6_A
p1701
aV6EN6_B
p1702
aV6EN6_C
p1703
aV5ENK_A
p1704
aV4ENH_A
p1705
aV4EN0_C
p1706
aV4EN0_A
p1707
aV4EN0_B
p1708
aV3MSJ_C
p1709
aV3MSJ_A
p1710
aV3MSJ_B
p1711
aV4MSV_A
p1712
aV5MSA_A
p1713
aV3MSK_A
p1714
aV4MS4_A
p1715
aV4TYJ_A
p1716
aV4TYG_A
p1717
aV5U8C_A
p1718
aV5U8L_A
p1719
aV4U8V_B
p1720
aV4U8Y_B
p1721
aV4I8M_A
p1722
aV1I8L_A
p1723
aV1I8L_B
p1724
aV5I8A_A
p1725
aV4J0M_A
p1726
aV4J0M_B
p1727
aV5DEL_A
p1728
aV1DE4_I
p1729
aV1DE4_G
p1730
aV5GUW_D
p1731
aV5GUW_B
p1732
aV5GUX_B
p1733
aV5J3J_A
p1734
aV5J3J_B
p1735
aV2X70_D
p1736
aV2X70_A
p1737
aV1X7Q_A
p1738
aV4X7I_A
p1739
aV4X7I_B
p1740
aV1X70_A
p1741
aV1X70_B
p1742
aV5HK1_C
p1743
aV5HK1_A
p1744
aV5HK2_B
p1745
aV5OSC_D
p1746
aV5OSC_A
p1747
aV5OSC_B
p1748
aV5OSC_C
p1749
aV5OSC_E
p1750
aV5OSA_D
p1751
aV5OSA_B
p1752
aV5OSA_C
p1753
aV5OSA_E
p1754
aV5OSQ_B
p1755
aV3OSK_A
p1756
aV3JCU_a
p1757
aV3JCU_A
p1758
aV3JCU_C
p1759
aV3JCU_c
p1760
aV2JCR_A
p1761
aV2JCO_A
p1762
aV2JCQ_A
p1763
aV2JCJ_A
p1764
aV2P7T_C
p1765
aV5T04_A
p1766
aV3UPR_A
p1767
aV3UPR_C
p1768
aV5UPH_A
p1769
aV5UPH_B
p1770
aV3UP1_A
p1771
aV3UP1_B
p1772
aV5GGK_A
p1773
aV5GGK_B
p1774
aV3QK5_A
p1775
aV3QK5_B
p1776
aV1QKC_A
p1777
aV5LK2_A
p1778
aV3LKZ_A
p1779
aV3LKZ_B
p1780
aV3LKW_A
p1781
aV5LK3_A
p1782
aV4LK3_F
p1783
aV5LK1_A
p1784
aV2CFQ_A
p1785
aV6CF5_D
p1786
aV6CF5_B
p1787
aV6CF5_F
p1788
aV2CFP_A
p1789
aV5NS9_A
p1790
aV5NSJ_A
p1791
aV5NSJ_B
p1792
aV4NSD_B
p1793
aV4NTY_A
p1794
aV4NTX_A
p1795
aV4NTW_A
p1796
aV4DH6_A
p1797
aV5M01_A
p1798
aV5M0W_A
p1799
aV4M0W_A
p1800
aV5M02_A
p1801
aV5M02_H
p1802
aV5GS0_A
p1803
aV5GS0_B
p1804
aV5GSD_A
p1805
aV2GSK_A
p1806
aV3BEH_D
p1807
aV3BEH_A
p1808
aV3BEH_B
p1809
aV3BEH_C
p1810
aV3BE8_A
p1811
aV3BE8_B
p1812
aV2BEZ_C
p1813
aV5NH0_C
p1814
aV5NH0_B
p1815
aV2UWT_L
p1816
aV2UWT_H
p1817
aV2UWT_M
p1818
aV2UWS_L
p1819
aV2UWS_H
p1820
aV2UWS_M
p1821
aV2UWW_L
p1822
aV2UWW_H
p1823
aV2UWW_M
p1824
aV2UWV_L
p1825
aV2UWV_H
p1826
aV2UWV_M
p1827
aV2UWU_L
p1828
aV2UWU_H
p1829
aV2UWU_M
p1830
aV5FHO_B
p1831
aV5FHO_C
p1832
aV5FHN_A
p1833
aV5FHM_A
p1834
aV5FHM_B
p1835
aV1QHJ_A
p1836
aV5VOC_A
p1837
aV5VOB_A
p1838
aV5VOD_A
p1839
aV4E1S_A
p1840
aV3V64_C
p1841
aV5K9D_A
p1842
aV5K9C_A
p1843
aV4RKU_A
p1844
aV4RKU_B
p1845
aV4OQV_A
p1846
aV4OQT_A
p1847
aV4GBY_A
p1848
aV4GBZ_A
p1849
aV3GBN_B
p1850
aV3GBN_A
p1851
aV4POV_A
p1852
aV4POV_B
p1853
aV4POP_A
p1854
aV4POP_B
p1855
aV3PO7_A
p1856
aV3PO7_B
p1857
aV4PO7_A
p1858
aV4RDI_D
p1859
aV4RDI_A
p1860
aV4RDI_B
p1861
aV4RDI_C
p1862
aV4RDH_D
p1863
aV4RDH_A
p1864
aV4RDH_B
p1865
aV4RDH_C
p1866
aV2RDD_A
p1867
aV4RDA_A
p1868
aV4RDA_B
p1869
aV5WRI_A
p1870
aV4JM0_A
p1871
aV5JMY_A
p1872
aV5JMY_B
p1873
aV5JMN_A
p1874
aV5JMN_B
p1875
aV5JMN_C
p1876
aV5E7C_a
p1877
aV5E7C_A
p1878
aV5E7C_C
p1879
aV5E7C_c
p1880
aV5E79_a
p1881
aV5E79_A
p1882
aV5E79_C
p1883
aV5E79_c
p1884
aV2PZR_A
p1885
aV2PZR_B
p1886
aV5PZP_A
p1887
aV5PZP_B
p1888
aV5PZN_A
p1889
aV5PZN_B
p1890
aV2PZG_A
p1891
aV2PZG_B
p1892
aV5PZO_A
p1893
aV5PZO_B
p1894
aV5PZK_A
p1895
aV5PZK_B
p1896
aV5PZM_B
p1897
aV4PZ4_A
p1898
aV4PZ4_B
p1899
aV5ERP_A
p1900
aV5ERP_B
p1901
aV4ERT_A
p1902
aV4ERV_A
p1903
aV5B5E_C
p1904
aV5B5E_b
p1905
aV5B5E_D
p1906
aV6B5V_D
p1907
aV6B5V_A
p1908
aV6B5V_B
p1909
aV6B5V_C
p1910
aV5KIJ_A
p1911
aV5H2F_a
p1912
aV5H2F_A
p1913
aV5H2F_C
p1914
aV5H2F_D
p1915
aV5H2P_A
p1916
aV2H26_A
p1917
aV3AOD_C
p1918
aV3AOD_A
p1919
aV3AOX_A
p1920
aV3AOB_C
p1921
aV3MBW_A
p1922
aV4MBS_A
p1923
aV4MBS_B
p1924
aV5IUX_A
p1925
aV5IUX_E
p1926
aV5IUM_A
p1927
aV5IUM_B
p1928
aV4IUM_A
p1929
aV2X4T_D
p1930
aV2X4T_A
p1931
aV2X4P_D
p1932
aV2X4P_A
p1933
aV4X48_C
p1934
aV4X48_A
p1935
aV4X48_B
p1936
aV2X4N_D
p1937
aV2X4N_A
p1938
aV2X4U_D
p1939
aV2X4U_A
p1940
aV2X4R_D
p1941
aV2X4R_A
p1942
aV2X4Q_A
p1943
aV2X4O_D
p1944
aV2X4O_A
p1945
aV4HWL_B
p1946
aV1HWK_D
p1947
aV1HWK_A
p1948
aV1HWK_B
p1949
aV1HWK_C
p1950
aV1HWI_D
p1951
aV1HWI_A
p1952
aV1HWI_B
p1953
aV1HWI_C
p1954
aV3HW1_C
p1955
aV4BJ3_A
p1956
aV1BJI_A
p1957
aV3BJM_A
p1958
aV3BJM_B
p1959
aV5WI8_D
p1960
aV5WI8_A
p1961
aV5WI8_B
p1962
aV5WI8_C
p1963
aV5WIW_A
p1964
aV5WIW_B
p1965
aV5WIE_B
p1966
aV5WIE_H
p1967
aV5MZM_A
p1968
aV4MZA_A
p1969
aV4MZA_B
p1970
aV3MZG_B
p1971
aV5MZR_D
p1972
aV5MZR_A
p1973
aV5MZR_C
p1974
aV5MZR_E
p1975
aV4MZE_A
p1976
aV4MZE_B
p1977
aV3WN4_A
p1978
aV5LJZ_A
p1979
aV5LJX_A
p1980
aV3KWW_A
p1981
aV5KWK_A
p1982
aV2VXM_B
p1983
aV3GNV_A
p1984
aV3GNV_B
p1985
aV5AAA_A
p1986
aV5AAB_A
p1987
aV5AAC_A
p1988
aV3OAX_A
p1989
aV3OAX_B
p1990
aV3PHM_A
p1991
aV1PHM_A
p1992
aV4PHQ_D
p1993
aV4PHQ_A
p1994
aV4PHQ_B
p1995
aV4PHQ_C
p1996
aV4PHO_A
p1997
aV4PHO_B
p1998
aV3QTI_B
p1999
aV5TRZ_A
p2000
aV5TRZ_C
p2001
aV5F09_A
p2002
aV5F01_A
p2003
aV4YBI_A
p2004
aV4YBI_B
p2005
aV2GAM_D
p2006
aV2GAM_C
p2007
aV4GAF_B
p2008
aV4D79_D
p2009
aV4D79_A
p2010
aV4D79_B
p2011
aV4D79_C
p2012
aV4D78_A
p2013
aV5D7I_A
p2014
aV5D7I_C
p2015
aV5D7J_C
p2016
aV5D7J_E
p2017
aV4D7A_D
p2018
aV4D7A_A
p2019
aV4D7A_B
p2020
aV4D7A_C
p2021
aV3CL1_A
p2022
aV3T3P_A
p2023
aV5E0H_A
p2024
aV5E0H_B
p2025
aV1E0O_B
p2026
aV5EG3_A
p2027
aV4EGW_A
p2028
aV4EGW_B
p2029
aV1EGI_A
p2030
aV1EGI_B
p2031
aV1S4N_A
p2032
aV1S4N_B
p2033
aV3S4S_D
p2034
aV3S4S_B
p2035
aV3S4S_E
p2036
aV5FWY_B
p2037
aV4FWW_A
p2038
aV6FW0_A
p2039
aV6FW0_B
p2040
aV6FWC_A
p2041
aV6FWC_B
p2042
aV4Q6R_A
p2043
aV3BKL_A
p2044
aV4BKJ_A
p2045
aV4BKJ_B
p2046
aV6BKM_A
p2047
aV6BKM_E
p2048
aV2HH1_L
p2049
aV2HH1_H
p2050
aV2HH1_M
p2051
aV2HHK_L
p2052
aV2HHK_H
p2053
aV2HHK_M
p2054
aV3DWF_D
p2055
aV3DWF_B
p2056
aV4DW7_A
p2057
aV4DW7_B
p2058
aV1R4L_A
p2059
aV4ESK_D
p2060
aV4ESK_A
p2061
aV4ESK_B
p2062
aV4ESK_C
p2063
aV4ESU_A
p2064
aV5KOE_D
p2065
aV5KOE_A
p2066
aV5KOE_C
p2067
aV2JLZ_A
p2068
aV2JLZ_B
p2069
aV2JLU_A
p2070
aV2JLU_B
p2071
aV2JLY_A
p2072
aV2JLY_B
p2073
aV2JLV_A
p2074
aV2JLV_B
p2075
aV2JLL_A
p2076
aV2JLS_A
p2077
aV2JLQ_A
p2078
aV2JLW_B
p2079
aV1INH_A
p2080
aV1INH_B
p2081
aV3INQ_A
p2082
aV3INQ_B
p2083
aV4IN7_L
p2084
aV4IN7_H
p2085
aV4IN7_M
p2086
aV1INX_A
p2087
aV1ING_A
p2088
aV1ING_B
p2089
aV5VYB_A
p2090
aV3L9P_A
p2091
aV1L9H_A
p2092
aV1L9H_B
p2093
aV5Y3Q_A
p2094
aV5Y31_A
p2095
aV5Y31_C
p2096
aV5Y3Z_A
p2097
aV5Y3Z_B
p2098
aV5Y3J_A
p2099
aV5Y3J_B
p2100
aV5Y3K_A
p2101
aV5Y3K_B
p2102
aV5Y3E_A
p2103
aV5Y3L_A
p2104
aV5Y3L_B
p2105
aV5XBM_F
p2106
aV5XBM_C
p2107
aV4XBH_A
p2108
aV4XBH_B
p2109
aV2A8H_A
p2110
aV2A8H_B
p2111
aV5NLX_A
p2112
aV5KC0_A
p2113
aV5KC4_E
p2114
aV5KC4_A
p2115
aV4KCD_A
p2116
aV4KCD_B
p2117
aV5KC8_A
p2118
aV5KC9_C
p2119
aV5KC9_A
p2120
aV5KC9_B
p2121
aV4F12_A
p2122
aV5O49_A
p2123
aV5O4F_A
p2124
aV5O4A_A
p2125
aV3H6W_A
p2126
aV3H6T_C
p2127
aV3H6T_A
p2128
aV3H6T_B
p2129
aV3H6V_A
p2130
aV3H6V_B
p2131
aV3H6U_A
p2132
aV1RJ6_A
p2133
aV1RJ6_B
p2134
aV2RJ0_A
p2135
aV2RJ8_A
p2136
aV2RJ4_A
p2137
aV2RJ9_A
p2138
aV2RJ1_A
p2139
aV2RJ5_A
p2140
aV4E4Z_A
p2141
aV5KVM_A
p2142
aV5KVT_A
p2143
aV6AWO_A
p2144
aV6AWN_A
p2145
aV6AW0_A
p2146
aV6AW0_B
p2147
aV6AWQ_A
p2148
aV6AWP_A
p2149
aV5AWD_A
p2150
aV5AWW_Y
p2151
aV6AW1_A
p2152
aV6AW1_B
p2153
aV6F5U_A
p2154
aV6F5U_B
p2155
aV2F53_A
p2156
aV5P8Y_A
p2157
aV1P84_D
p2158
aV1P84_C
p2159
aV3P8C_B
p2160
aV5BO1_B
p2161
aV5BO1_A
p2162
aV3BO8_A
p2163
aV6CGS_B
p2164
aV6CGB_A
p2165
aV2YOE_B
p2166
aV2YOE_C
p2167
aV5W97_G
p2168
aV5W97_C
p2169
aV5W97_b
p2170
aV4W9Y_A
p2171
aV5YHF_A
p2172
aV6C2I_A
p2173
aV6C26_2
p2174
aV6C26_A
p2175
aV6C26_1
p2176
aV4C2P_A
p2177
aV1M9Z_A
p2178
aV3M97_X
p2179
aV5XEA_B
p2180
aV4XE5_A
p2181
aV3SXE_A
p2182
aV3SX3_A
p2183
aV3SXA_A
p2184
aV3SX7_A
p2185
aV3IAI_D
p2186
aV3IAI_B
p2187
aV3IAI_C
p2188
aV4IAR_A
p2189
aV5EDL_A
p2190
aV5M5E_B
p2191
aV1M17_A
p2192
aV4FGX_A
p2193
aV2FGJ_D
p2194
aV2FGJ_C
p2195
aV6FG8_A
p2196
aV2FGK_D
p2197
aV2FGK_C
p2198
aV2DRD_A
p2199
aV4DRU_A
p2200
aV4DRU_B
p2201
aV2DR6_A
p2202
aV3W3J_B
p2203
aV3W3N_A
p2204
aV6ANK_A
p2205
aV6ANK_B
p2206
aV4ANQ_A
p2207
aV4ANS_A
p2208
aV1W1X_D
p2209
aV1W1X_A
p2210
aV1W1X_B
p2211
aV1W1X_C
p2212
aV2HIT_L
p2213
aV2HIT_H
p2214
aV2HIT_M
p2215
aV3HI6_B
p2216
aV1EWK_B
p2217
aV5EWJ_D
p2218
aV5EWJ_B
p2219
aV5EW8_A
p2220
aV5VND_A
p2221
aV5VND_B
p2222
aV3BP7_A
p2223
aV3BP6_A
p2224
aV3BP6_B
p2225
aV3BP4_A
p2226
aV3BP5_A
p2227
aV3BP5_B
p2228
aV3WHT_A
p2229
aV3WHU_A
p2230
aV4WHD_A
p2231
aV4WHD_B
p2232
aV2WHV_A
p2233
aV4K1C_A
p2234
aV4K1C_B
p2235
aV2K1R_A
p2236
aV4PQP_A
p2237
aV4PQP_B
p2238
aV4PQP_C
p2239
aV3KUL_A
p2240
aV5V48_A
p2241
aV5V48_B
p2242
aV5I9X_A
p2243
aV3I92_B
p2244
aV5I9J_A
p2245
aV3I97_A
p2246
aV2I9L_L
p2247
aV2I9L_I
p2248
aV2I9L_J
p2249
aV2I9L_K
p2250
aV5I9Y_A
p2251
aV5C0E_A
p2252
aV5C0C_A
p2253
aV5C0C_F
p2254
aV5C0F_A
p2255
aV5C0I_A
p2256
aV4C00_A
p2257
aV5C0B_A
p2258
aV5C0B_F
p2259
aV5C08_A
p2260
aV5C0A_A
p2261
aV5C0A_F
p2262
aV5C07_A
p2263
aV5C07_F
p2264
aV5C0G_A
p2265
aV1IZL_A
p2266
aV1IZL_J
p2267
aV1Q25_A
p2268
aV2Q2F_A
p2269
aV3Q2W_A
p2270
aV3Q2V_A
p2271
aV3Q2V_B
p2272
aV3Q2U_A
p2273
aV6B9D_A
p2274
aV6B9D_B
p2275
aV6B9F_A
p2276
aV6B9F_B
p2277
aV2UXL_L
p2278
aV2UXL_H
p2279
aV1UXW_A
p2280
aV1UXS_A
p2281
aV2UXM_L
p2282
aV2UXM_H
p2283
aV2UXM_M
p2284
aV2UX4_L
p2285
aV2UX4_H
p2286
aV2UX4_M
p2287
aV2UXJ_L
p2288
aV2UXJ_H
p2289
aV2UXJ_M
p2290
aV2UX5_L
p2291
aV2UX5_H
p2292
aV2UX5_M
p2293
aV4UXQ_A
p2294
aV2UXK_L
p2295
aV2UXK_H
p2296
aV2UXK_M
p2297
aV2UX3_L
p2298
aV2UX3_H
p2299
aV2UX3_M
p2300
aV5Y92_A
p2301
aV5Y96_A
p2302
aV5Y96_B
p2303
aV5TZN_A
p2304
aV3TZV_C
p2305
aV5TZU_C
p2306
aV3VB7_A
p2307
aV3VB7_B
p2308
aV3VB4_B
p2309
aV3DTS_L
p2310
aV3DTS_H
p2311
aV3DTS_M
p2312
aV5DT6_A
p2313
aV2I5N_H
p2314
aV1NEK_D
p2315
aV1NEK_C
p2316
aV1NEN_D
p2317
aV1NEN_C
p2318
aV5NEB_A
p2319
aV5NEB_B
p2320
aV3O28_A
p2321
aV3O29_A
p2322
aV3O2A_A
p2323
aV4Y5V_F
p2324
aV4Y5V_C
p2325
aV2EVU_A
p2326
aV4NK9_A
p2327
aV1NKZ_C
p2328
aV1NKZ_E
p2329
aV3NKA_A
p2330
aV3NKA_B
p2331
aV4NKA_A
p2332
aV4NKA_B
p2333
aV4WW8_B
p2334
aV3N23_A
p2335
aV3N23_C
p2336
aV3TKD_A
p2337
aV3TKD_B
p2338
aV1R55_A
p2339
aV6F9V_A
p2340
aV6F9V_B
p2341
aV5F9J_A
p2342
aV6F9G_D
p2343
aV6F9G_A
p2344
aV6F9G_C
p2345
aV6F9G_E
p2346
aV6F9T_A
p2347
aV6F9R_A
p2348
aV6F9R_B
p2349
aV3S6C_A
p2350
aV3S68_A
p2351
aV1T9W_A
p2352
aV1T9U_A
p2353
aV3PD9_A
p2354
aV3PD9_B
p2355
aV3PD8_A
p2356
aV3PD8_B
p2357
aV4PD4_C
p2358
aV4PD4_E
p2359
aV3PDO_A
p2360
aV3PDO_B
p2361
aV3A3K_A
p2362
aV5CBR_A
p2363
aV5CBS_D
p2364
aV5CBS_A
p2365
aV5CBS_B
p2366
aV5CBS_C
p2367
aV6CB2_A
p2368
aV4MCQ_A
p2369
aV4MCS_A
p2370
aV4MCP_A
p2371
aV4MCR_A
p2372
aV5Z96_D
p2373
aV5Z96_A
p2374
aV5Z96_B
p2375
aV5Z96_C
p2376
aV1Z9H_D
p2377
aV1Z9H_A
p2378
aV1Z9H_B
p2379
aV1Z9H_C
p2380
aV1HXT_A
p2381
aV4FRK_A
p2382
aV4FRJ_A
p2383
aV4GCP_A
p2384
aV4GCP_B
p2385
aV4GC0_A
p2386
aV3QJT_A
p2387
aV3QJR_A
p2388
aV3QJ9_A
p2389
aV3QJ9_B
p2390
aV2QJR_B
p2391
aV2QJK_M
p2392
aV2QJK_P
p2393
aV2QJK_J
p2394
aV2QJK_G
p2395
aV3QJS_A
p2396
aV3QJU_A
p2397
aV3QJV_A
p2398
aV2QJP_J
p2399
aV2QJP_G
p2400
aV3QJQ_A
p2401
aV3IJX_D
p2402
aV3IJX_H
p2403
aV3IJX_B
p2404
aV2Z62_A
p2405
aV2Q0B_A
p2406
aV2Q0B_B
p2407
aV3MVS_A
p2408
aV5MVN_D
p2409
aV5MVN_B
p2410
aV5MVN_C
p2411
aV5MVN_E
p2412
aV5MVM_D
p2413
aV5MVM_A
p2414
aV5MVM_B
p2415
aV5MVM_C
p2416
aV5MVM_E
p2417
aV5KSH_A
p2418
aV5KSH_B
p2419
aV4XK8_8
p2420
aV4XK8_3
p2421
aV1XKK_A
p2422
aV4XKX_A
p2423
aV5VZ5_A
p2424
aV1VZU_A
p2425
aV1VZU_B
p2426
aV1VZX_A
p2427
aV1VZX_B
p2428
aV5BZR_A
p2429
aV4BZS_A
p2430
aV4BZS_B
p2431
aV5BZT_A
p2432
aV5BZI_A
p2433
aV5BZK_A
p2434
aV5K6V_A
p2435
aV5K6W_A
p2436
aV5K6W_B
p2437
aV5K6K_A
p2438
aV5K6K_B
p2439
aV5K6X_A
p2440
aV5K6X_B
p2441
aV5XHQ_B
p2442
aV3WFE_B
p2443
aV2WF3_A
p2444
aV3WFB_B
p2445
aV3WFD_B
p2446
aV3WFC_B
p2447
aV2WBP_A
p2448
aV5WBX_B
p2449
aV3WB4_A
p2450
aV3WB5_A
p2451
aV5WBE_A
p2452
aV4UF7_C
p2453
aV4UF7_E
p2454
aV2RL7_A
p2455
aV2RL7_B
p2456
aV2RL7_C
p2457
aV1XR9_A
p2458
aV1XR8_A
p2459
aV4FPD_A
p2460
aV4KQQ_A
p2461
aV4KQQ_B
p2462
aV4KQO_A
p2463
aV4KQO_B
p2464
aV4KQR_A
p2465
aV4KQR_B
p2466
aV2Q7R_D
p2467
aV2Q7R_E
p2468
aV2Q7N_A
p2469
aV2Q7M_D
p2470
aV2Q7M_E
p2471
aV5KD7_I
p2472
aV5KD7_F
p2473
aV3OKT_A
p2474
aV3OKY_A
p2475
aV3OKW_A
p2476
aV3OKW_B
p2477
aV1W72_A
p2478
aV4W7Z_A
p2479
aV4W7Z_B
p2480
aV3W7R_A
p2481
aV5PRC_H
p2482
aV5PRC_M
p2483
aV7PRC_H
p2484
aV7PRC_M
p2485
aV2PRC_H
p2486
aV2PRC_M
p2487
aV6PRC_H
p2488
aV6PRC_M
p2489
aV3PRC_H
p2490
aV3PRC_M
p2491
aV4F8H_D
p2492
aV4F8H_A
p2493
aV4F8H_B
p2494
aV4F8H_C
p2495
aV4F8H_E
p2496
aV3B6H_A
p2497
aV3B6H_B
p2498
aV5B66_a
p2499
aV5B66_A
p2500
aV5B66_B
p2501
aV5B66_C
p2502
aV5B66_c
p2503
aV5WAU_j
p2504
aV5WAU_G
p2505
aV5WAU_C
p2506
aV5WAU_c
p2507
aV2Z81_A
p2508
aV5TIS_a
p2509
aV5TIS_A
p2510
aV5TIS_C
p2511
aV5TIS_c
p2512
aV4H13_A
p2513
aV4H13_B
p2514
aV3H1L_C
p2515
aV3H1L_P
p2516
aV3H1J_C
p2517
aV3H1J_P
p2518
aV3H1I_C
p2519
aV3H1I_P
p2520
aV3H1H_C
p2521
aV3H1H_P
p2522
aV3H1K_C
p2523
aV3H1K_P
p2524
aV2WX2_A
p2525
aV2WX2_B
p2526
aV5K0B_B
p2527
aV5K0B_G
p2528
aV3VW7_A
p2529
aV5VWV_A
p2530
aV4J14_A
p2531
aV2AV7_D
p2532
aV2AV7_A
p2533
aV2AV1_D
p2534
aV2AV1_A
p2535
aV1IM0_A
p2536
aV1DJL_A
p2537
aV1DJL_B
p2538
aV5DJQ_K
p2539
aV5DJQ_D
p2540
aV5DJQ_A
p2541
aV5DJQ_G
p2542
aV5DJQ_F
p2543
aV4XPB_A
p2544
aV4XP4_A
p2545
aV1LNU_E
p2546
aV3LNE_A
p2547
aV4IGT_A
p2548
aV4IGH_A
p2549
aV1J4N_A
p2550
aV3RVI_A
p2551
aV4RVY_a
p2552
aV4RVY_C
p2553
aV4RVY_c
p2554
aV4RVY_A
p2555
aV2ZOK_A
p2556
aV2ZOK_G
p2557
aV2ZOK_E
p2558
aV3ZOS_A
p2559
aV4WK4_A
p2560
aV4WK2_A
p2561
aV4WK2_B
p2562
aV4WKQ_A
p2563
aV5WKI_A
p2564
aV4WK0_A
p2565
aV4WK0_B
p2566
aV5WKV_A
p2567
aV5WKV_B
p2568
aV3MDM_A
p2569
aV3MDV_A
p2570
aV3MDV_B
p2571
aV5MDX_a
p2572
aV5MDX_7
p2573
aV5MDX_A
p2574
aV5MDX_R
p2575
aV5MDX_3
p2576
aV5MDX_C
p2577
aV5MDX_s
p2578
aV5MDX_S
p2579
aV5MDX_c
p2580
aV5MDX_r
p2581
aV3MDR_A
p2582
aV3MDR_B
p2583
aV3MDT_A
p2584
aV3MDT_B
p2585
aV1QYY_A
p2586
aV5I73_A
p2587
aV5I71_A
p2588
aV5I7U_A
p2589
aV5I7U_B
p2590
aV4I7Z_A
p2591
aV4I7Z_C
p2592
aV4I7I_A
p2593
aV5I75_A
p2594
aV5G5J_A
p2595
aV3G5C_A
p2596
aV3G5C_B
p2597
aV4G5J_A
p2598
aV3S5L_D
p2599
aV3S5L_H
p2600
aV3S5L_A
p2601
aV3S5L_B
p2602
aV3S5L_G
p2603
aV3S5L_E
p2604
aV1S5L_H
p2605
aV1S5L_B
p2606
aV1S5L_Z
p2607
aV1S5L_C
p2608
aV1S5L_D
p2609
aV5V7V_A
p2610
aV4OF8_D
p2611
aV4OF8_A
p2612
aV4OF8_B
p2613
aV4OF8_C
p2614
aV4OFY_C
p2615
aV4OFY_E
p2616
aV4OF3_A
p2617
aV4OF3_B
p2618
aV3KK6_A
p2619
aV3KK6_B
p2620
aV3PWN_D
p2621
aV3PWN_A
p2622
aV3PWL_D
p2623
aV3PWL_A
p2624
aV3PWP_A
p2625
aV3PWJ_D
p2626
aV3PWJ_A
p2627
aV4PWU_D
p2628
aV4PWU_A
p2629
aV4PWU_B
p2630
aV4PWU_C
p2631
aV3PW9_A
p2632
aV1L8J_A
p2633
aV5L8R_3
p2634
aV5L8R_4
p2635
aV5L8R_A
p2636
aV2OHR_A
p2637
aV2OHQ_A
p2638
aV3OHH_A
p2639
aV3OHH_B
p2640
aV3OHF_A
p2641
aV3OHF_B
p2642
aV3UDR_A
p2643
aV4UDT_A
p2644
aV4UDT_B
p2645
aV3UDH_A
p2646
aV5UDY_A
p2647
aV3UDK_A
p2648
aV3UDY_A
p2649
aV3UDP_A
p2650
aV2Q9F_A
p2651
aV1Q90_C
p2652
aV2Q9G_A
p2653
aV1YJK_A
p2654
aV3SOQ_A
p2655
aV1SO2_D
p2656
aV3SOV_A
p2657
aV3SO3_A
p2658
aV3TT0_B
p2659
aV5NF6_B
p2660
aV5NF5_A
p2661
aV5NF5_B
p2662
aV4NF5_A
p2663
aV4NF5_B
p2664
aV5X0M_A
p2665
aV2H4V_A
p2666
aV2H4V_B
p2667
aV5NAN_B
p2668
aV5NAN_C
p2669
aV4ZAU_A
p2670
aV5EJ0_A
p2671
aV4KRV_A
p2672
aV4KRV_B
p2673
aV4KR0_A
p2674
aV3NIG_A
p2675
aV3NIG_C
p2676
aV5NIH_A
p2677
aV5NIH_B
p2678
aV3NIF_D
p2679
aV3NIF_A
p2680
aV3NIF_B
p2681
aV3NIF_C
p2682
aV3NID_D
p2683
aV3NID_A
p2684
aV3NID_B
p2685
aV3NID_C
p2686
aV1HE7_A
p2687
aV2R2O_A
p2688
aV1R2C_H
p2689
aV1R2C_M
p2690
aV4ELM_C
p2691
aV5ELY_A
p2692
aV5ELV_A
p2693
aV5ELV_B
p2694
aV4Z55_A
p2695
aV5Z5K_A
p2696
aV2Z5X_A
p2697
aV4LSF_A
p2698
aV4LSF_B
p2699
aV4LSX_A
p2700
aV4LSX_B
p2701
aV4LSI_C
p2702
aV4LSI_A
p2703
aV4LSI_B
p2704
aV4HYT_A
p2705
aV4HYT_C
p2706
aV4HYX_A
p2707
aV4HYX_B
p2708
aV2IBZ_C
p2709
aV2IBZ_E
p2710
aV5IB3_A
p2711
aV5IB4_A
p2712
aV5IB2_A
p2713
aV5IB5_D
p2714
aV4FMK_A
p2715
aV5FMK_A
p2716
aV2FMA_A
p2717
aV3GFD_A
p2718
aV3GFD_B
p2719
aV1RQQ_A
p2720
aV1RQQ_B
p2721
aV4WTU_A
p2722
aV5HAG_A
p2723
aV2YDV_A
p2724
aV2YDO_A
p2725
aV2AXT_Z
p2726
aV5TS1_G
p2727
aV5TS1_E
p2728
aV5TS1_A
p2729
aV5TS1_C
p2730
aV2NPK_A
p2731
aV4NPK_A
p2732
aV2NPG_A
p2733
aV1OYE_A
p2734
aV1DMT_A
p2735
aV5A9D_A
p2736
aV5A9D_B
p2737
aV5A9H_A
p2738
aV4A97_I
p2739
aV4A97_J
p2740
aV4A97_D
p2741
aV4A97_A
p2742
aV4A97_B
p2743
aV4A97_G
p2744
aV4A97_F
p2745
aV4A97_H
p2746
aV4A97_C
p2747
aV4A97_E
p2748
aV5A9I_B
p2749
aV1SQP_E
p2750
aV2F2B_A
p2751
aV5F21_A
p2752
aV4RN5_A
p2753
aV2G87_A
p2754
aV2G87_B
p2755
aV4G8M_A
p2756
aV4G8M_B
p2757
aV3QEL_D
p2758
aV3QEL_B
p2759
aV4FZ0_C
p2760
aV4HSI_D
p2761
aV4HSI_A
p2762
aV4HSI_B
p2763
aV4HSI_C
p2764
aV3VQ2_A
p2765
aV4AEN_A
p2766
aV4AEN_B
p2767
aV2AES_C
p2768
aV2AES_A
p2769
aV2AES_B
p2770
aV2AE7_C
p2771
aV2AE7_A
p2772
aV2AE7_B
p2773
aV2AEC_C
p2774
aV2AEC_A
p2775
aV2AEC_B
p2776
aV3H7B_D
p2777
aV3H7B_A
p2778
aV5Y2Z_I
p2779
aV5Y2Z_K
p2780
aV5Y2Z_A
p2781
aV5Y2Z_G
p2782
aV5Y2Z_C
p2783
aV5Y2Z_E
p2784
aV4Y28_A
p2785
aV4Y28_B
p2786
aV4Y2D_E
p2787
aV4YPT_A
p2788
aV4IFF_A
p2789
aV4IFF_B
p2790
aV4IFF_C
p2791
aV1IFQ_A
p2792
aV1IFQ_B
p2793
aV1UOW_A
p2794
aV4UON_A
p2795
aV4UON_B
p2796
aV1UOV_A
p2797
aV2RIX_A
p2798
aV2RIT_A
p2799
aV2RIZ_A
p2800
aV3RZE_A
p2801
aV3RZC_A
p2802
aV5NG9_A
p2803
aV4NGP_A
p2804
aV4NGS_A
p2805
aV4NGM_A
p2806
aV4NGN_A
p2807
aV4NGQ_A
p2808
aV4NGR_A
p2809
aV4NGT_A
p2810
aV2Y6M_A
p2811
aV2Y6O_A
p2812
aV3TBV_A
p2813
aV3TBV_G
p2814
aV3TBV_E
p2815
aV5TBO_A
p2816
aV3TBS_D
p2817
aV3TBS_A
p2818
aV1PT6_A
p2819
aV1PT6_B
p2820
aV1PT9_A
p2821
aV1PT9_B
p2822
aV1EXZ_B
p2823
aV4DO3_A
p2824
aV4DO3_B
p2825
aV3U2H_A
p2826
aV5U2V_A
p2827
aV5U2V_C
p2828
aV4PMP_A
p2829
aV3PMV_A
p2830
aV3PMW_A
p2831
aV4PMT_A
p2832
aV3PMX_A
p2833
aV4PMM_A
p2834
aV4PMS_A
p2835
aV2AH9_C
p2836
aV2AH9_A
p2837
aV2AH9_B
p2838
aV4AH2_A
p2839
aV4AH2_B
p2840
aV2AHS_A
p2841
aV2AGD_C
p2842
aV2AGD_A
p2843
aV2AGD_B
p2844
aV5DIR_D
p2845
aV5DIR_A
p2846
aV5DIR_B
p2847
aV5DIR_C
p2848
aV4DI2_C
p2849
aV4DI2_A
p2850
aV4DI2_B
p2851
aV4EBZ_A
p2852
aV4EBY_A
p2853
aV3D4C_A
p2854
aV3D48_R
p2855
aV3D4S_A
p2856
aV5E6V_A
p2857
aV5YU9_D
p2858
aV5YU9_A
p2859
aV5YU9_B
p2860
aV5YU9_C
p2861
aV5A1R_A
p2862
aV5A1P_A
p2863
aV1A14_N
p2864
aV4U95_B
p2865
aV5U98_D
p2866
aV5U98_A
p2867
aV4U9N_A
p2868
aV4U9N_B
p2869
aV5U94_A
p2870
aV4U9S_C
p2871
aV4HUX_A
p2872
aV5N1Y_A
p2873
aV4QXE_A
p2874
aV3CCC_A
p2875
aV3CCC_B
p2876
aV5CCJ_D
p2877
aV5CCJ_A
p2878
aV5CCJ_B
p2879
aV5CCJ_C
p2880
aV5CC2_A
p2881
aV3CCH_J
p2882
aV3CCH_D
p2883
aV3CCH_A
p2884
aV3CCH_G
p2885
aV3CCB_A
p2886
aV3CCB_B
p2887
aV3CCB_C
p2888
aV3CC5_D
p2889
aV3CC5_A
p2890
aV3AU1_A
p2891
aV5VTA_D
p2892
aV5VTA_A
p2893
aV5VTA_B
p2894
aV5VTA_C
p2895
aV3WQJ_A
p2896
aV3WQH_A
p2897
aV3WQH_B
p2898
aV2WQY_D
p2899
aV2WQY_Q
p2900
aV1PP9_C
p2901
aV1PP9_P
p2902
aV1PPJ_R
p2903
aV1PPJ_C
p2904
aV1PPJ_P
p2905
aV4PP8_A
p2906
aV4PP8_B
p2907
aV2ID5_D
p2908
aV2ID5_A
p2909
aV2ID5_B
p2910
aV2ID5_C
p2911
aV3ILU_E
p2912
aV3ILU_H
p2913
aV3ILU_B
p2914
aV3ILT_E
p2915
aV3ILT_H
p2916
aV3ILT_B
p2917
aV4IL6_a
p2918
aV4IL6_A
p2919
aV5XAX_A
p2920
aV5XAX_B
p2921
aV4XAV_A
p2922
aV4XAV_B
p2923
aV5XAW_A
p2924
aV5XAW_B
p2925
aV4JFP_D
p2926
aV4JFP_A
p2927
aV4JFQ_D
p2928
aV4JFQ_A
p2929
aV5JFI_A
p2930
aV5JFI_B
p2931
aV4JFN_A
p2932
aV4JFO_D
p2933
aV4JFO_A
p2934
aV5JFK_A
p2935
aV5JFK_B
p2936
aV3G0B_D
p2937
aV3G0B_A
p2938
aV3G0B_B
p2939
aV3G0B_C
p2940
aV3G0C_D
p2941
aV3G0C_A
p2942
aV3G0C_B
p2943
aV3G0C_C
p2944
aV3G0E_A
p2945
aV3G0D_D
p2946
aV3G0D_A
p2947
aV3G0D_B
p2948
aV3G0D_C
p2949
aV3G0G_A
p2950
aV3G0G_B
p2951
aV3G0G_C
p2952
aV1FI1_A
p2953
aV4FIA_A
p2954
aV6BAA_H
p2955
aV6BAA_F
p2956
aV6BAA_G
p2957
aV6BAA_E
p2958
aV3ZDX_D
p2959
aV3ZDX_A
p2960
aV3ZDX_B
p2961
aV3ZDX_C
p2962
aV2ZD9_D
p2963
aV2ZD9_A
p2964
aV2ZD9_B
p2965
aV2ZD9_C
p2966
aV4OW0_A
p2967
aV4OW0_B
p2968
aV3UA1_A
p2969
aV5UAB_A
p2970
aV4LCW_A
p2971
aV3LCS_A
p2972
aV3LC8_A
p2973
aV3LC8_B
p2974
aV3LCA_A
p2975
aV3LCT_A
p2976
aV3ZGG_A
p2977
aV5ZGB_L
p2978
aV5ZGB_A
p2979
aV5ZGB_B
p2980
aV5ZGH_L
p2981
aV5ZGH_B
p2982
aV5ZGH_A
p2983
aV3SJQ_D
p2984
aV3BIK_C
p2985
aV3BIA_X
p2986
aV3BIB_X
p2987
aV3BI9_X
p2988
aV5O36_A
p2989
aV4O3A_C
p2990
aV4O3A_A
p2991
aV4O3A_B
p2992
aV3O3D_D
p2993
aV3O3D_A
p2994
aV3O3B_D
p2995
aV3O3B_A
p2996
aV4O3B_A
p2997
aV4O3B_B
p2998
aV3O3E_D
p2999
aV3O3E_A
p3000
aV3O3A_D
p3001
aV3O3A_A
p3002
aV4O3C_A
p3003
aV3SFE_C
p3004
aV3IO8_A
p3005
aV3IO8_C
p3006
aV3IOH_A
p3007
aV3IOJ_A
p3008
aV3IOJ_B
p3009
aV4S0V_A
p3010
aV3N8W_A
p3011
aV3N8V_B
p3012
aV3N8X_A
p3013
aV3N8X_B
p3014
aV3N8Z_A
p3015
aV3N8Z_B
p3016
aV3N8Y_A
p3017
aV3N8Y_B
p3018
aV3N85_A
p3019
aV4N8E_B
p3020
aV4N8D_B
p3021
aV4URT_B
p3022
aV3WG5_A
p3023
aV3WG5_B
p3024
aV2WGZ_A
p3025
aV2WGZ_B
p3026
aV4WGK_A
p3027
aV4WGK_B
p3028
aV2WGJ_A
p3029
aV3WG7_T
p3030
aV3WG7_A
p3031
aV3WG7_B
p3032
aV3WG7_C
p3033
aV3WG7_P
p3034
aV5TCD_A
p3035
aV5PA5_A
p3036
aV5PA1_A
p3037
aV5PA0_A
p3038
aV5K47_D
p3039
aV5K47_A
p3040
aV5K47_B
p3041
aV5K47_C
p3042
aV1K4V_A
p3043
aV1K4V_B
p3044
aV4LHU_A
p3045
aV4L3C_a
p3046
aV4L3C_W
p3047
aV4L3C_M
p3048
aV4L3C_K
p3049
aV4L3C_A
p3050
aV4L3C_C
p3051
aV4L3C_U
p3052
aV4L3C_O
p3053
aV4L3C_S
p3054
aV4L3C_E
p3055
aV4L3C_G
p3056
aV4L3C_I
p3057
aV4L3C_Q
p3058
aV4L3C_Y
p3059
aV3L3I_A
p3060
aV3L3K_A
p3061
aV3L3D_A
p3062
aV1L3W_A
p3063
aV3L3G_A
p3064
aV1TJX_A
p3065
aV1TJM_A
p3066
aV5TJK_A
p3067
aV3T8X_A
p3068
aV3T8X_C
p3069
aV5E5M_A
p3070
aV5E5M_G
p3071
aV4LR2_A
p3072
aV4I0Z_A
p3073
aV4I0P_D
p3074
aV4I0P_H
p3075
aV4I0P_F
p3076
aV4I0P_G
p3077
aV4I0J_A
p3078
aV5I04_A
p3079
aV4I0Y_A
p3080
aV5EIK_A
p3081
aV4R07_A
p3082
aV4R07_B
p3083
aV4R0A_A
p3084
aV4R08_A
p3085
aV4R08_B
p3086
aV1ZVM_D
p3087
aV6CJF_B
p3088
aV6CJG_A
p3089
aV5CJF_A
p3090
aV5JNX_A
p3091
aV5XNL_a
p3092
aV5XNL_A
p3093
aV5XNL_C
p3094
aV5XNL_c
p3095
aV5XNM_a
p3096
aV5XNM_A
p3097
aV5XNM_C
p3098
aV5XNM_c
p3099
aV2XN9_A
p3100
aV2XN9_B
p3101
aV2XNA_A
p3102
aV2XNA_B
p3103
aV4Q4B_A
p3104
aV3BN3_A
p3105
aV3BN3_B
p3106
aV4DUS_A
p3107
aV2DUP_A
p3108
aV2DUP_B
p3109
aV2DUR_A
p3110
aV4GKX_A
p3111
aV4GKX_B
p3112
aV4GK1_D
p3113
aV4GK1_A
p3114
aV4GK1_B
p3115
aV4GK1_F
p3116
aV4GK1_G
p3117
aV4GK1_C
p3118
aV4GK1_E
p3119
aV3GKH_A
p3120
aV4GKS_D
p3121
aV4GKS_A
p3122
aV4GKY_A
p3123
aV2GK2_A
p3124
aV2GK2_B
p3125
aV5OGL_A
p3126
aV4OGQ_A
p3127
aV1VP6_C
p3128
aV1VP6_A
p3129
aV5HM7_A
p3130
aV5HM7_B
p3131
aV4JTA_B
p3132
aV4JTY_A
p3133
aV4JTY_B
p3134
aV4JTZ_A
p3135
aV4JTZ_B
p3136
aV4JTD_B
p3137
aV4JTD_H
p3138
aV4JTC_B
p3139
aV4JTW_A
p3140
aV4JTW_B
p3141
aV5JTC_A
p3142
aV1XME_A
p3143
aV2XME_L
p3144
aV2XME_I
p3145
aV2XME_D
p3146
aV2XME_A
p3147
aV2XME_B
p3148
aV2XME_G
p3149
aV2XME_C
p3150
aV2XME_E
p3151
aV4K5Y_A
p3152
aV4K5Y_B
p3153
aV1K5N_A
p3154
aV4ZUD_A
p3155
aV3PGC_D
p3156
aV3PGC_E
p3157
aV4PGC_D
p3158
aV4PGC_A
p3159
aV4PGE_A
p3160
aV4PG9_A
p3161
aV5CXF_B
p3162
aV5CXV_A
p3163
aV3ZBF_A
p3164
aV1CQE_A
p3165
aV1CQE_B
p3166
aV1CQP_A
p3167
aV1CQP_B
p3168
aV1U31_A
p3169
aV1U31_B
p3170
aV4U3F_C
p3171
aV4U3F_P
p3172
aV3TFQ_E
p3173
aV2AYL_A
p3174
aV2AYL_B
p3175
aV1P1Q_C
p3176
aV4DGR_A
p3177
aV2DGJ_B
p3178
aV6G7K_A
p3179
aV6G7I_A
p3180
aV6G7J_A
p3181
aV3G7F_H
p3182
aV6G7H_A
p3183
aV6G7L_A
p3184
aV2VDP_A
p3185
aV2VDP_B
p3186
aV2VDM_B
p3187
aV2VDM_A
p3188
aV2VDR_A
p3189
aV2VDR_B
p3190
aV2VDO_A
p3191
aV2VDO_B
p3192
aV2VDK_B
p3193
aV2VDK_A
p3194
aV2VDQ_A
p3195
aV2VDQ_B
p3196
aV2VDL_B
p3197
aV2VDL_A
p3198
aV2VDN_A
p3199
aV2VDN_B
p3200
aV4ORM_A
p3201
aV1YI9_A
p3202
aV5VL3_S
p3203
aV2AL4_D
p3204
aV2AL4_F
p3205
aV4ALZ_A
p3206
aV3ALA_A
p3207
aV4OBC_A
p3208
aV3QA3_G
p3209
aV4GMI_A
p3210
aV2GMR_M
p3211
aV4GMS_D
p3212
aV4GMS_A
p3213
aV4GMS_B
p3214
aV4GMS_C
p3215
aV4GMS_E
p3216
aV5V52_A
p3217
aV3V5K_D
p3218
aV3V5U_A
p3219
aV3V5H_D
p3220
aV2V5T_A
p3221
aV4JYW_A
p3222
aV4ZRQ_D
p3223
aV4ZR5_A
p3224
aV4ZR5_B
p3225
aV4ZRP_D
p3226
aV4ZRP_C
p3227
aV5ZRY_A
p3228
aV5ZRY_B
p3229
aV1QLF_A
p3230
aV2QLY_A
p3231
aV3QLU_B
p3232
a.